

Microchip MPLAB XC8 Assembler V2.20 build 20200408173844 
                                                                                               Sun Jul 19 09:33:44 2020

Microchip MPLAB XC8 C Compiler v2.20 (Free license) build 20200408173844 Og1 
     1                           	processor	16F877A
     2                           	pagewidth 120
     3                           	opt	flic
     4                           	psect	idataBANK1,global,class=CODE,delta=2,noexec
     5                           	psect	strings,global,class=STRING,delta=2,noexec
     6                           	psect	nvBANK1,global,class=BANK1,space=1,delta=1,noexec
     7                           	psect	cinit,global,class=CODE,merge=1,delta=2
     8                           	psect	bssCOMMON,global,class=COMMON,space=1,delta=1,noexec
     9                           	psect	bssBANK0,global,class=BANK0,space=1,delta=1,noexec
    10                           	psect	bssBANK1,global,class=BANK1,space=1,delta=1,noexec
    11                           	psect	dataBANK1,global,class=BANK1,space=1,delta=1,noexec
    12                           	psect	inittext,global,class=CODE,delta=2
    13                           	psect	clrtext,global,class=CODE,delta=2
    14                           	psect	cstackCOMMON,global,class=COMMON,space=1,delta=1,noexec
    15                           	psect	cstackBANK0,global,class=BANK0,space=1,delta=1,noexec
    16                           	psect	maintext,global,class=CODE,split=1,delta=2
    17                           	psect	text1,local,class=CODE,merge=1,delta=2
    18                           	psect	text2,local,class=CODE,merge=1,delta=2
    19                           	psect	text3,local,class=CODE,merge=1,delta=2
    20                           	psect	text4,local,class=CODE,merge=1,delta=2
    21                           	psect	text5,local,class=CODE,merge=1,delta=2
    22                           	psect	text6,local,class=CODE,merge=1,delta=2,group=1
    23                           	psect	text7,local,class=CODE,merge=1,delta=2
    24                           	psect	text8,local,class=CODE,merge=1,delta=2
    25                           	psect	text9,local,class=CODE,merge=1,delta=2
    26                           	psect	text10,local,class=CODE,merge=1,delta=2
    27                           	psect	text11,local,class=CODE,merge=1,delta=2
    28                           	psect	text12,local,class=CODE,merge=1,delta=2
    29                           	psect	text13,local,class=CODE,merge=1,delta=2
    30                           	psect	text14,local,class=CODE,merge=1,delta=2
    31                           	psect	text15,local,class=CODE,merge=1,delta=2
    32                           	psect	text16,local,class=CODE,merge=1,delta=2
    33                           	psect	text17,local,class=CODE,merge=1,delta=2
    34                           	psect	text18,local,class=CODE,merge=1,delta=2
    35                           	psect	text19,local,class=CODE,merge=1,delta=2
    36                           	psect	text20,local,class=CODE,merge=1,delta=2
    37                           	psect	text21,local,class=CODE,merge=1,delta=2,group=1
    38                           	psect	text22,local,class=CODE,merge=1,delta=2,group=1
    39                           	psect	text23,local,class=CODE,merge=1,delta=2
    40                           	psect	text24,local,class=CODE,merge=1,delta=2
    41                           	psect	text25,local,class=CODE,merge=1,delta=2
    42                           	psect	text26,local,class=CODE,merge=1,delta=2
    43                           	psect	text27,local,class=CODE,merge=1,delta=2
    44                           	psect	text28,local,class=CODE,merge=1,delta=2
    45                           	psect	text29,local,class=CODE,merge=1,delta=2
    46                           	psect	text30,local,class=CODE,merge=1,delta=2
    47                           	psect	text31,local,class=CODE,merge=1,delta=2
    48                           	psect	text32,local,class=CODE,merge=1,delta=2
    49                           	psect	text33,local,class=CODE,merge=1,delta=2
    50                           	psect	text34,local,class=CODE,merge=1,delta=2
    51                           	psect	text35,local,class=CODE,merge=1,delta=2
    52                           	psect	text36,local,class=CODE,merge=1,delta=2
    53                           	psect	text37,local,class=CODE,merge=1,delta=2,group=1
    54                           	psect	text38,local,class=CODE,merge=1,delta=2
    55                           	psect	text39,local,class=CODE,merge=1,delta=2,group=1
    56                           	psect	text40,local,class=CODE,merge=1,delta=2,group=1
    57                           	psect	text41,local,class=CODE,merge=1,delta=2,group=1
    58                           	psect	text42,local,class=CODE,merge=1,delta=2,group=1
    59                           	psect	text43,local,class=CODE,merge=1,delta=2,group=1
    60                           	psect	text44,local,class=CODE,merge=1,delta=2
    61                           	psect	text45,local,class=CODE,merge=1,delta=2
    62                           	psect	text46,local,class=CODE,merge=1,delta=2
    63                           	psect	text47,local,class=CODE,merge=1,delta=2
    64                           	psect	text48,local,class=CODE,merge=1,delta=2
    65                           	psect	text49,local,class=CODE,merge=1,delta=2
    66                           	psect	text50,local,class=CODE,merge=1,delta=2
    67                           	psect	text51,local,class=CODE,merge=1,delta=2
    68                           	psect	text52,local,class=CODE,merge=1,delta=2
    69                           	psect	text53,local,class=CODE,merge=1,delta=2
    70                           	psect	text54,local,class=CODE,merge=1,delta=2
    71                           	psect	text55,local,class=CODE,merge=1,delta=2
    72                           	psect	text56,local,class=CODE,merge=1,delta=2
    73                           	psect	text57,local,class=CODE,merge=1,delta=2
    74                           	psect	text58,local,class=CODE,merge=1,delta=2
    75                           	psect	text59,local,class=CODE,merge=1,delta=2
    76                           	psect	text60,local,class=CODE,merge=1,delta=2
    77                           	psect	text61,local,class=CODE,merge=1,delta=2
    78                           	psect	text62,local,class=CODE,merge=1,delta=2
    79                           	psect	intentry,global,class=CODE,delta=2
    80                           	psect	text63,local,class=CODE,merge=1,delta=2
    81                           	psect	functab,global,class=ENTRY,delta=2
    82                           	psect	config,global,abs,ovrld,class=CONFIG,space=4,delta=2,noexec
    83                           	dabs	1,0x7E,2
    84  0000                     
    85                           ; Version 2.20
    86                           ; Generated 12/02/2020 GMT
    87                           ; 
    88                           ; Copyright © 2020, Microchip Technology Inc. and its subsidiaries ("Microchip")
    89                           ; All rights reserved.
    90                           ; 
    91                           ; This software is developed by Microchip Technology Inc. and its subsidiaries ("Microch
      +                          ip").
    92                           ; 
    93                           ; Redistribution and use in source and binary forms, with or without modification, are
    94                           ; permitted provided that the following conditions are met:
    95                           ; 
    96                           ;     1. Redistributions of source code must retain the above copyright notice, this lis
      +                          t of
    97                           ;        conditions and the following disclaimer.
    98                           ; 
    99                           ;     2. Redistributions in binary form must reproduce the above copyright notice, this 
      +                          list
   100                           ;        of conditions and the following disclaimer in the documentation and/or other
   101                           ;        materials provided with the distribution.
   102                           ; 
   103                           ;     3. Microchip's name may not be used to endorse or promote products derived from th
      +                          is
   104                           ;        software without specific prior written permission.
   105                           ; 
   106                           ; THIS SOFTWARE IS PROVIDED BY MICROCHIP "AS IS" AND ANY EXPRESS OR IMPLIED WARRANTIES,
   107                           ; INCLUDING, BUT NOT LIMITED TO, THE IMPLIED WARRANTIES OF MERCHANTABILITY AND FITNESS F
      +                          OR
   108                           ; PURPOSE ARE DISCLAIMED.  IN NO EVENT SHALL MICROCHIP BE LIABLE FOR ANY DIRECT, INDIREC
      +                          T,
   109                           ; INCIDENTAL, SPECIAL, EXEMPLARY, OR CONSEQUENTIAL DAMAGES (INCLUDING BUT NOT LIMITED TO
   110                           ; PROCUREMENT OF SUBSTITUTE GOODS OR SERVICES; LOSS OF USE, DATA OR PROFITS; OR BUSINESS
   111                           ; INTERRUPTION) HOWSOEVER CAUSED AND ON ANY THEORY OF LIABILITY, WHETHER IN CONTRACT, ST
      +                          RICT
   112                           ; LIABILITY, OR TORT (INCLUDING NEGLIGENCE OR OTHERWISE) ARISING IN ANY WAY OUT OF THE U
      +                          SE OF
   113                           ; THIS SOFTWARE, EVEN IF ADVISED OF THE POSSIBILITY OF SUCH DAMAGE.
   114                           ; 
   115                           ; 
   116                           ; Code-generator required, PIC16F877A Definitions
   117                           ; 
   118                           ; SFR Addresses
   119  0000                     	;# 
   120  0001                     	;# 
   121  0002                     	;# 
   122  0003                     	;# 
   123  0004                     	;# 
   124  0005                     	;# 
   125  0006                     	;# 
   126  0007                     	;# 
   127  0008                     	;# 
   128  0009                     	;# 
   129  000A                     	;# 
   130  000B                     	;# 
   131  000C                     	;# 
   132  000D                     	;# 
   133  000E                     	;# 
   134  000E                     	;# 
   135  000F                     	;# 
   136  0010                     	;# 
   137  0011                     	;# 
   138  0012                     	;# 
   139  0013                     	;# 
   140  0014                     	;# 
   141  0015                     	;# 
   142  0015                     	;# 
   143  0016                     	;# 
   144  0017                     	;# 
   145  0018                     	;# 
   146  0019                     	;# 
   147  001A                     	;# 
   148  001B                     	;# 
   149  001B                     	;# 
   150  001C                     	;# 
   151  001D                     	;# 
   152  001E                     	;# 
   153  001F                     	;# 
   154  0081                     	;# 
   155  0085                     	;# 
   156  0086                     	;# 
   157  0087                     	;# 
   158  0088                     	;# 
   159  0089                     	;# 
   160  008C                     	;# 
   161  008D                     	;# 
   162  008E                     	;# 
   163  0091                     	;# 
   164  0092                     	;# 
   165  0093                     	;# 
   166  0094                     	;# 
   167  0098                     	;# 
   168  0099                     	;# 
   169  009C                     	;# 
   170  009D                     	;# 
   171  009E                     	;# 
   172  009F                     	;# 
   173  010C                     	;# 
   174  010D                     	;# 
   175  010E                     	;# 
   176  010F                     	;# 
   177  018C                     	;# 
   178  018D                     	;# 
   179  0000                     	;# 
   180  0001                     	;# 
   181  0002                     	;# 
   182  0003                     	;# 
   183  0004                     	;# 
   184  0005                     	;# 
   185  0006                     	;# 
   186  0007                     	;# 
   187  0008                     	;# 
   188  0009                     	;# 
   189  000A                     	;# 
   190  000B                     	;# 
   191  000C                     	;# 
   192  000D                     	;# 
   193  000E                     	;# 
   194  000E                     	;# 
   195  000F                     	;# 
   196  0010                     	;# 
   197  0011                     	;# 
   198  0012                     	;# 
   199  0013                     	;# 
   200  0014                     	;# 
   201  0015                     	;# 
   202  0015                     	;# 
   203  0016                     	;# 
   204  0017                     	;# 
   205  0018                     	;# 
   206  0019                     	;# 
   207  001A                     	;# 
   208  001B                     	;# 
   209  001B                     	;# 
   210  001C                     	;# 
   211  001D                     	;# 
   212  001E                     	;# 
   213  001F                     	;# 
   214  0081                     	;# 
   215  0085                     	;# 
   216  0086                     	;# 
   217  0087                     	;# 
   218  0088                     	;# 
   219  0089                     	;# 
   220  008C                     	;# 
   221  008D                     	;# 
   222  008E                     	;# 
   223  0091                     	;# 
   224  0092                     	;# 
   225  0093                     	;# 
   226  0094                     	;# 
   227  0098                     	;# 
   228  0099                     	;# 
   229  009C                     	;# 
   230  009D                     	;# 
   231  009E                     	;# 
   232  009F                     	;# 
   233  010C                     	;# 
   234  010D                     	;# 
   235  010E                     	;# 
   236  010F                     	;# 
   237  018C                     	;# 
   238  018D                     	;# 
   239  0000                     	;# 
   240  0001                     	;# 
   241  0002                     	;# 
   242  0003                     	;# 
   243  0004                     	;# 
   244  0005                     	;# 
   245  0006                     	;# 
   246  0007                     	;# 
   247  0008                     	;# 
   248  0009                     	;# 
   249  000A                     	;# 
   250  000B                     	;# 
   251  000C                     	;# 
   252  000D                     	;# 
   253  000E                     	;# 
   254  000E                     	;# 
   255  000F                     	;# 
   256  0010                     	;# 
   257  0011                     	;# 
   258  0012                     	;# 
   259  0013                     	;# 
   260  0014                     	;# 
   261  0015                     	;# 
   262  0015                     	;# 
   263  0016                     	;# 
   264  0017                     	;# 
   265  0018                     	;# 
   266  0019                     	;# 
   267  001A                     	;# 
   268  001B                     	;# 
   269  001B                     	;# 
   270  001C                     	;# 
   271  001D                     	;# 
   272  001E                     	;# 
   273  001F                     	;# 
   274  0081                     	;# 
   275  0085                     	;# 
   276  0086                     	;# 
   277  0087                     	;# 
   278  0088                     	;# 
   279  0089                     	;# 
   280  008C                     	;# 
   281  008D                     	;# 
   282  008E                     	;# 
   283  0091                     	;# 
   284  0092                     	;# 
   285  0093                     	;# 
   286  0094                     	;# 
   287  0098                     	;# 
   288  0099                     	;# 
   289  009C                     	;# 
   290  009D                     	;# 
   291  009E                     	;# 
   292  009F                     	;# 
   293  010C                     	;# 
   294  010D                     	;# 
   295  010E                     	;# 
   296  010F                     	;# 
   297  018C                     	;# 
   298  018D                     	;# 
   299  0000                     	;# 
   300  0001                     	;# 
   301  0002                     	;# 
   302  0003                     	;# 
   303  0004                     	;# 
   304  0005                     	;# 
   305  0006                     	;# 
   306  0007                     	;# 
   307  0008                     	;# 
   308  0009                     	;# 
   309  000A                     	;# 
   310  000B                     	;# 
   311  000C                     	;# 
   312  000D                     	;# 
   313  000E                     	;# 
   314  000E                     	;# 
   315  000F                     	;# 
   316  0010                     	;# 
   317  0011                     	;# 
   318  0012                     	;# 
   319  0013                     	;# 
   320  0014                     	;# 
   321  0015                     	;# 
   322  0015                     	;# 
   323  0016                     	;# 
   324  0017                     	;# 
   325  0018                     	;# 
   326  0019                     	;# 
   327  001A                     	;# 
   328  001B                     	;# 
   329  001B                     	;# 
   330  001C                     	;# 
   331  001D                     	;# 
   332  001E                     	;# 
   333  001F                     	;# 
   334  0081                     	;# 
   335  0085                     	;# 
   336  0086                     	;# 
   337  0087                     	;# 
   338  0088                     	;# 
   339  0089                     	;# 
   340  008C                     	;# 
   341  008D                     	;# 
   342  008E                     	;# 
   343  0091                     	;# 
   344  0092                     	;# 
   345  0093                     	;# 
   346  0094                     	;# 
   347  0098                     	;# 
   348  0099                     	;# 
   349  009C                     	;# 
   350  009D                     	;# 
   351  009E                     	;# 
   352  009F                     	;# 
   353  010C                     	;# 
   354  010D                     	;# 
   355  010E                     	;# 
   356  010F                     	;# 
   357  018C                     	;# 
   358  018D                     	;# 
   359  0000                     	;# 
   360  0001                     	;# 
   361  0002                     	;# 
   362  0003                     	;# 
   363  0004                     	;# 
   364  0005                     	;# 
   365  0006                     	;# 
   366  0007                     	;# 
   367  0008                     	;# 
   368  0009                     	;# 
   369  000A                     	;# 
   370  000B                     	;# 
   371  000C                     	;# 
   372  000D                     	;# 
   373  000E                     	;# 
   374  000E                     	;# 
   375  000F                     	;# 
   376  0010                     	;# 
   377  0011                     	;# 
   378  0012                     	;# 
   379  0013                     	;# 
   380  0014                     	;# 
   381  0015                     	;# 
   382  0015                     	;# 
   383  0016                     	;# 
   384  0017                     	;# 
   385  0018                     	;# 
   386  0019                     	;# 
   387  001A                     	;# 
   388  001B                     	;# 
   389  001B                     	;# 
   390  001C                     	;# 
   391  001D                     	;# 
   392  001E                     	;# 
   393  001F                     	;# 
   394  0081                     	;# 
   395  0085                     	;# 
   396  0086                     	;# 
   397  0087                     	;# 
   398  0088                     	;# 
   399  0089                     	;# 
   400  008C                     	;# 
   401  008D                     	;# 
   402  008E                     	;# 
   403  0091                     	;# 
   404  0092                     	;# 
   405  0093                     	;# 
   406  0094                     	;# 
   407  0098                     	;# 
   408  0099                     	;# 
   409  009C                     	;# 
   410  009D                     	;# 
   411  009E                     	;# 
   412  009F                     	;# 
   413  010C                     	;# 
   414  010D                     	;# 
   415  010E                     	;# 
   416  010F                     	;# 
   417  018C                     	;# 
   418  018D                     	;# 
   419  0000                     	;# 
   420  0001                     	;# 
   421  0002                     	;# 
   422  0003                     	;# 
   423  0004                     	;# 
   424  0005                     	;# 
   425  0006                     	;# 
   426  0007                     	;# 
   427  0008                     	;# 
   428  0009                     	;# 
   429  000A                     	;# 
   430  000B                     	;# 
   431  000C                     	;# 
   432  000D                     	;# 
   433  000E                     	;# 
   434  000E                     	;# 
   435  000F                     	;# 
   436  0010                     	;# 
   437  0011                     	;# 
   438  0012                     	;# 
   439  0013                     	;# 
   440  0014                     	;# 
   441  0015                     	;# 
   442  0015                     	;# 
   443  0016                     	;# 
   444  0017                     	;# 
   445  0018                     	;# 
   446  0019                     	;# 
   447  001A                     	;# 
   448  001B                     	;# 
   449  001B                     	;# 
   450  001C                     	;# 
   451  001D                     	;# 
   452  001E                     	;# 
   453  001F                     	;# 
   454  0081                     	;# 
   455  0085                     	;# 
   456  0086                     	;# 
   457  0087                     	;# 
   458  0088                     	;# 
   459  0089                     	;# 
   460  008C                     	;# 
   461  008D                     	;# 
   462  008E                     	;# 
   463  0091                     	;# 
   464  0092                     	;# 
   465  0093                     	;# 
   466  0094                     	;# 
   467  0098                     	;# 
   468  0099                     	;# 
   469  009C                     	;# 
   470  009D                     	;# 
   471  009E                     	;# 
   472  009F                     	;# 
   473  010C                     	;# 
   474  010D                     	;# 
   475  010E                     	;# 
   476  010F                     	;# 
   477  018C                     	;# 
   478  018D                     	;# 
   479  0000                     	;# 
   480  0001                     	;# 
   481  0002                     	;# 
   482  0003                     	;# 
   483  0004                     	;# 
   484  0005                     	;# 
   485  0006                     	;# 
   486  0007                     	;# 
   487  0008                     	;# 
   488  0009                     	;# 
   489  000A                     	;# 
   490  000B                     	;# 
   491  000C                     	;# 
   492  000D                     	;# 
   493  000E                     	;# 
   494  000E                     	;# 
   495  000F                     	;# 
   496  0010                     	;# 
   497  0011                     	;# 
   498  0012                     	;# 
   499  0013                     	;# 
   500  0014                     	;# 
   501  0015                     	;# 
   502  0015                     	;# 
   503  0016                     	;# 
   504  0017                     	;# 
   505  0018                     	;# 
   506  0019                     	;# 
   507  001A                     	;# 
   508  001B                     	;# 
   509  001B                     	;# 
   510  001C                     	;# 
   511  001D                     	;# 
   512  001E                     	;# 
   513  001F                     	;# 
   514  0081                     	;# 
   515  0085                     	;# 
   516  0086                     	;# 
   517  0087                     	;# 
   518  0088                     	;# 
   519  0089                     	;# 
   520  008C                     	;# 
   521  008D                     	;# 
   522  008E                     	;# 
   523  0091                     	;# 
   524  0092                     	;# 
   525  0093                     	;# 
   526  0094                     	;# 
   527  0098                     	;# 
   528  0099                     	;# 
   529  009C                     	;# 
   530  009D                     	;# 
   531  009E                     	;# 
   532  009F                     	;# 
   533  010C                     	;# 
   534  010D                     	;# 
   535  010E                     	;# 
   536  010F                     	;# 
   537  018C                     	;# 
   538  018D                     	;# 
   539  0000                     	;# 
   540  0001                     	;# 
   541  0002                     	;# 
   542  0003                     	;# 
   543  0004                     	;# 
   544  0005                     	;# 
   545  0006                     	;# 
   546  0007                     	;# 
   547  0008                     	;# 
   548  0009                     	;# 
   549  000A                     	;# 
   550  000B                     	;# 
   551  000C                     	;# 
   552  000D                     	;# 
   553  000E                     	;# 
   554  000E                     	;# 
   555  000F                     	;# 
   556  0010                     	;# 
   557  0011                     	;# 
   558  0012                     	;# 
   559  0013                     	;# 
   560  0014                     	;# 
   561  0015                     	;# 
   562  0015                     	;# 
   563  0016                     	;# 
   564  0017                     	;# 
   565  0018                     	;# 
   566  0019                     	;# 
   567  001A                     	;# 
   568  001B                     	;# 
   569  001B                     	;# 
   570  001C                     	;# 
   571  001D                     	;# 
   572  001E                     	;# 
   573  001F                     	;# 
   574  0081                     	;# 
   575  0085                     	;# 
   576  0086                     	;# 
   577  0087                     	;# 
   578  0088                     	;# 
   579  0089                     	;# 
   580  008C                     	;# 
   581  008D                     	;# 
   582  008E                     	;# 
   583  0091                     	;# 
   584  0092                     	;# 
   585  0093                     	;# 
   586  0094                     	;# 
   587  0098                     	;# 
   588  0099                     	;# 
   589  009C                     	;# 
   590  009D                     	;# 
   591  009E                     	;# 
   592  009F                     	;# 
   593  010C                     	;# 
   594  010D                     	;# 
   595  010E                     	;# 
   596  010F                     	;# 
   597  018C                     	;# 
   598  018D                     	;# 
   599  0000                     	;# 
   600  0001                     	;# 
   601  0002                     	;# 
   602  0003                     	;# 
   603  0004                     	;# 
   604  0005                     	;# 
   605  0006                     	;# 
   606  0007                     	;# 
   607  0008                     	;# 
   608  0009                     	;# 
   609  000A                     	;# 
   610  000B                     	;# 
   611  000C                     	;# 
   612  000D                     	;# 
   613  000E                     	;# 
   614  000E                     	;# 
   615  000F                     	;# 
   616  0010                     	;# 
   617  0011                     	;# 
   618  0012                     	;# 
   619  0013                     	;# 
   620  0014                     	;# 
   621  0015                     	;# 
   622  0015                     	;# 
   623  0016                     	;# 
   624  0017                     	;# 
   625  0018                     	;# 
   626  0019                     	;# 
   627  001A                     	;# 
   628  001B                     	;# 
   629  001B                     	;# 
   630  001C                     	;# 
   631  001D                     	;# 
   632  001E                     	;# 
   633  001F                     	;# 
   634  0081                     	;# 
   635  0085                     	;# 
   636  0086                     	;# 
   637  0087                     	;# 
   638  0088                     	;# 
   639  0089                     	;# 
   640  008C                     	;# 
   641  008D                     	;# 
   642  008E                     	;# 
   643  0091                     	;# 
   644  0092                     	;# 
   645  0093                     	;# 
   646  0094                     	;# 
   647  0098                     	;# 
   648  0099                     	;# 
   649  009C                     	;# 
   650  009D                     	;# 
   651  009E                     	;# 
   652  009F                     	;# 
   653  010C                     	;# 
   654  010D                     	;# 
   655  010E                     	;# 
   656  010F                     	;# 
   657  018C                     	;# 
   658  018D                     	;# 
   659  0000                     	;# 
   660  0001                     	;# 
   661  0002                     	;# 
   662  0003                     	;# 
   663  0004                     	;# 
   664  0005                     	;# 
   665  0006                     	;# 
   666  0007                     	;# 
   667  0008                     	;# 
   668  0009                     	;# 
   669  000A                     	;# 
   670  000B                     	;# 
   671  000C                     	;# 
   672  000D                     	;# 
   673  000E                     	;# 
   674  000E                     	;# 
   675  000F                     	;# 
   676  0010                     	;# 
   677  0011                     	;# 
   678  0012                     	;# 
   679  0013                     	;# 
   680  0014                     	;# 
   681  0015                     	;# 
   682  0015                     	;# 
   683  0016                     	;# 
   684  0017                     	;# 
   685  0018                     	;# 
   686  0019                     	;# 
   687  001A                     	;# 
   688  001B                     	;# 
   689  001B                     	;# 
   690  001C                     	;# 
   691  001D                     	;# 
   692  001E                     	;# 
   693  001F                     	;# 
   694  0081                     	;# 
   695  0085                     	;# 
   696  0086                     	;# 
   697  0087                     	;# 
   698  0088                     	;# 
   699  0089                     	;# 
   700  008C                     	;# 
   701  008D                     	;# 
   702  008E                     	;# 
   703  0091                     	;# 
   704  0092                     	;# 
   705  0093                     	;# 
   706  0094                     	;# 
   707  0098                     	;# 
   708  0099                     	;# 
   709  009C                     	;# 
   710  009D                     	;# 
   711  009E                     	;# 
   712  009F                     	;# 
   713  010C                     	;# 
   714  010D                     	;# 
   715  010E                     	;# 
   716  010F                     	;# 
   717  018C                     	;# 
   718  018D                     	;# 
   719  0000                     	;# 
   720  0001                     	;# 
   721  0002                     	;# 
   722  0003                     	;# 
   723  0004                     	;# 
   724  0005                     	;# 
   725  0006                     	;# 
   726  0007                     	;# 
   727  0008                     	;# 
   728  0009                     	;# 
   729  000A                     	;# 
   730  000B                     	;# 
   731  000C                     	;# 
   732  000D                     	;# 
   733  000E                     	;# 
   734  000E                     	;# 
   735  000F                     	;# 
   736  0010                     	;# 
   737  0011                     	;# 
   738  0012                     	;# 
   739  0013                     	;# 
   740  0014                     	;# 
   741  0015                     	;# 
   742  0015                     	;# 
   743  0016                     	;# 
   744  0017                     	;# 
   745  0018                     	;# 
   746  0019                     	;# 
   747  001A                     	;# 
   748  001B                     	;# 
   749  001B                     	;# 
   750  001C                     	;# 
   751  001D                     	;# 
   752  001E                     	;# 
   753  001F                     	;# 
   754  0081                     	;# 
   755  0085                     	;# 
   756  0086                     	;# 
   757  0087                     	;# 
   758  0088                     	;# 
   759  0089                     	;# 
   760  008C                     	;# 
   761  008D                     	;# 
   762  008E                     	;# 
   763  0091                     	;# 
   764  0092                     	;# 
   765  0093                     	;# 
   766  0094                     	;# 
   767  0098                     	;# 
   768  0099                     	;# 
   769  009C                     	;# 
   770  009D                     	;# 
   771  009E                     	;# 
   772  009F                     	;# 
   773  010C                     	;# 
   774  010D                     	;# 
   775  010E                     	;# 
   776  010F                     	;# 
   777  018C                     	;# 
   778  018D                     	;# 
   779  0000                     	;# 
   780  0001                     	;# 
   781  0002                     	;# 
   782  0003                     	;# 
   783  0004                     	;# 
   784  0005                     	;# 
   785  0006                     	;# 
   786  0007                     	;# 
   787  0008                     	;# 
   788  0009                     	;# 
   789  000A                     	;# 
   790  000B                     	;# 
   791  000C                     	;# 
   792  000D                     	;# 
   793  000E                     	;# 
   794  000E                     	;# 
   795  000F                     	;# 
   796  0010                     	;# 
   797  0011                     	;# 
   798  0012                     	;# 
   799  0013                     	;# 
   800  0014                     	;# 
   801  0015                     	;# 
   802  0015                     	;# 
   803  0016                     	;# 
   804  0017                     	;# 
   805  0018                     	;# 
   806  0019                     	;# 
   807  001A                     	;# 
   808  001B                     	;# 
   809  001B                     	;# 
   810  001C                     	;# 
   811  001D                     	;# 
   812  001E                     	;# 
   813  001F                     	;# 
   814  0081                     	;# 
   815  0085                     	;# 
   816  0086                     	;# 
   817  0087                     	;# 
   818  0088                     	;# 
   819  0089                     	;# 
   820  008C                     	;# 
   821  008D                     	;# 
   822  008E                     	;# 
   823  0091                     	;# 
   824  0092                     	;# 
   825  0093                     	;# 
   826  0094                     	;# 
   827  0098                     	;# 
   828  0099                     	;# 
   829  009C                     	;# 
   830  009D                     	;# 
   831  009E                     	;# 
   832  009F                     	;# 
   833  010C                     	;# 
   834  010D                     	;# 
   835  010E                     	;# 
   836  010F                     	;# 
   837  018C                     	;# 
   838  018D                     	;# 
   839  0000                     	;# 
   840  0001                     	;# 
   841  0002                     	;# 
   842  0003                     	;# 
   843  0004                     	;# 
   844  0005                     	;# 
   845  0006                     	;# 
   846  0007                     	;# 
   847  0008                     	;# 
   848  0009                     	;# 
   849  000A                     	;# 
   850  000B                     	;# 
   851  000C                     	;# 
   852  000D                     	;# 
   853  000E                     	;# 
   854  000E                     	;# 
   855  000F                     	;# 
   856  0010                     	;# 
   857  0011                     	;# 
   858  0012                     	;# 
   859  0013                     	;# 
   860  0014                     	;# 
   861  0015                     	;# 
   862  0015                     	;# 
   863  0016                     	;# 
   864  0017                     	;# 
   865  0018                     	;# 
   866  0019                     	;# 
   867  001A                     	;# 
   868  001B                     	;# 
   869  001B                     	;# 
   870  001C                     	;# 
   871  001D                     	;# 
   872  001E                     	;# 
   873  001F                     	;# 
   874  0081                     	;# 
   875  0085                     	;# 
   876  0086                     	;# 
   877  0087                     	;# 
   878  0088                     	;# 
   879  0089                     	;# 
   880  008C                     	;# 
   881  008D                     	;# 
   882  008E                     	;# 
   883  0091                     	;# 
   884  0092                     	;# 
   885  0093                     	;# 
   886  0094                     	;# 
   887  0098                     	;# 
   888  0099                     	;# 
   889  009C                     	;# 
   890  009D                     	;# 
   891  009E                     	;# 
   892  009F                     	;# 
   893  010C                     	;# 
   894  010D                     	;# 
   895  010E                     	;# 
   896  010F                     	;# 
   897  018C                     	;# 
   898  018D                     	;# 
   899  0000                     	;# 
   900  0001                     	;# 
   901  0002                     	;# 
   902  0003                     	;# 
   903  0004                     	;# 
   904  0005                     	;# 
   905  0006                     	;# 
   906  0007                     	;# 
   907  0008                     	;# 
   908  0009                     	;# 
   909  000A                     	;# 
   910  000B                     	;# 
   911  000C                     	;# 
   912  000D                     	;# 
   913  000E                     	;# 
   914  000E                     	;# 
   915  000F                     	;# 
   916  0010                     	;# 
   917  0011                     	;# 
   918  0012                     	;# 
   919  0013                     	;# 
   920  0014                     	;# 
   921  0015                     	;# 
   922  0015                     	;# 
   923  0016                     	;# 
   924  0017                     	;# 
   925  0018                     	;# 
   926  0019                     	;# 
   927  001A                     	;# 
   928  001B                     	;# 
   929  001B                     	;# 
   930  001C                     	;# 
   931  001D                     	;# 
   932  001E                     	;# 
   933  001F                     	;# 
   934  0081                     	;# 
   935  0085                     	;# 
   936  0086                     	;# 
   937  0087                     	;# 
   938  0088                     	;# 
   939  0089                     	;# 
   940  008C                     	;# 
   941  008D                     	;# 
   942  008E                     	;# 
   943  0091                     	;# 
   944  0092                     	;# 
   945  0093                     	;# 
   946  0094                     	;# 
   947  0098                     	;# 
   948  0099                     	;# 
   949  009C                     	;# 
   950  009D                     	;# 
   951  009E                     	;# 
   952  009F                     	;# 
   953  010C                     	;# 
   954  010D                     	;# 
   955  010E                     	;# 
   956  010F                     	;# 
   957  018C                     	;# 
   958  018D                     	;# 
   959  0000                     	;# 
   960  0001                     	;# 
   961  0002                     	;# 
   962  0003                     	;# 
   963  0004                     	;# 
   964  0005                     	;# 
   965  0006                     	;# 
   966  0007                     	;# 
   967  0008                     	;# 
   968  0009                     	;# 
   969  000A                     	;# 
   970  000B                     	;# 
   971  000C                     	;# 
   972  000D                     	;# 
   973  000E                     	;# 
   974  000E                     	;# 
   975  000F                     	;# 
   976  0010                     	;# 
   977  0011                     	;# 
   978  0012                     	;# 
   979  0013                     	;# 
   980  0014                     	;# 
   981  0015                     	;# 
   982  0015                     	;# 
   983  0016                     	;# 
   984  0017                     	;# 
   985  0018                     	;# 
   986  0019                     	;# 
   987  001A                     	;# 
   988  001B                     	;# 
   989  001B                     	;# 
   990  001C                     	;# 
   991  001D                     	;# 
   992  001E                     	;# 
   993  001F                     	;# 
   994  0081                     	;# 
   995  0085                     	;# 
   996  0086                     	;# 
   997  0087                     	;# 
   998  0088                     	;# 
   999  0089                     	;# 
  1000  008C                     	;# 
  1001  008D                     	;# 
  1002  008E                     	;# 
  1003  0091                     	;# 
  1004  0092                     	;# 
  1005  0093                     	;# 
  1006  0094                     	;# 
  1007  0098                     	;# 
  1008  0099                     	;# 
  1009  009C                     	;# 
  1010  009D                     	;# 
  1011  009E                     	;# 
  1012  009F                     	;# 
  1013  010C                     	;# 
  1014  010D                     	;# 
  1015  010E                     	;# 
  1016  010F                     	;# 
  1017  018C                     	;# 
  1018  018D                     	;# 
  1019  0000                     	;# 
  1020  0001                     	;# 
  1021  0002                     	;# 
  1022  0003                     	;# 
  1023  0004                     	;# 
  1024  0005                     	;# 
  1025  0006                     	;# 
  1026  0007                     	;# 
  1027  0008                     	;# 
  1028  0009                     	;# 
  1029  000A                     	;# 
  1030  000B                     	;# 
  1031  000C                     	;# 
  1032  000D                     	;# 
  1033  000E                     	;# 
  1034  000E                     	;# 
  1035  000F                     	;# 
  1036  0010                     	;# 
  1037  0011                     	;# 
  1038  0012                     	;# 
  1039  0013                     	;# 
  1040  0014                     	;# 
  1041  0015                     	;# 
  1042  0015                     	;# 
  1043  0016                     	;# 
  1044  0017                     	;# 
  1045  0018                     	;# 
  1046  0019                     	;# 
  1047  001A                     	;# 
  1048  001B                     	;# 
  1049  001B                     	;# 
  1050  001C                     	;# 
  1051  001D                     	;# 
  1052  001E                     	;# 
  1053  001F                     	;# 
  1054  0081                     	;# 
  1055  0085                     	;# 
  1056  0086                     	;# 
  1057  0087                     	;# 
  1058  0088                     	;# 
  1059  0089                     	;# 
  1060  008C                     	;# 
  1061  008D                     	;# 
  1062  008E                     	;# 
  1063  0091                     	;# 
  1064  0092                     	;# 
  1065  0093                     	;# 
  1066  0094                     	;# 
  1067  0098                     	;# 
  1068  0099                     	;# 
  1069  009C                     	;# 
  1070  009D                     	;# 
  1071  009E                     	;# 
  1072  009F                     	;# 
  1073  010C                     	;# 
  1074  010D                     	;# 
  1075  010E                     	;# 
  1076  010F                     	;# 
  1077  018C                     	;# 
  1078  018D                     	;# 
  1079  0000                     	;# 
  1080  0001                     	;# 
  1081  0002                     	;# 
  1082  0003                     	;# 
  1083  0004                     	;# 
  1084  0005                     	;# 
  1085  0006                     	;# 
  1086  0007                     	;# 
  1087  0008                     	;# 
  1088  0009                     	;# 
  1089  000A                     	;# 
  1090  000B                     	;# 
  1091  000C                     	;# 
  1092  000D                     	;# 
  1093  000E                     	;# 
  1094  000E                     	;# 
  1095  000F                     	;# 
  1096  0010                     	;# 
  1097  0011                     	;# 
  1098  0012                     	;# 
  1099  0013                     	;# 
  1100  0014                     	;# 
  1101  0015                     	;# 
  1102  0015                     	;# 
  1103  0016                     	;# 
  1104  0017                     	;# 
  1105  0018                     	;# 
  1106  0019                     	;# 
  1107  001A                     	;# 
  1108  001B                     	;# 
  1109  001B                     	;# 
  1110  001C                     	;# 
  1111  001D                     	;# 
  1112  001E                     	;# 
  1113  001F                     	;# 
  1114  0081                     	;# 
  1115  0085                     	;# 
  1116  0086                     	;# 
  1117  0087                     	;# 
  1118  0088                     	;# 
  1119  0089                     	;# 
  1120  008C                     	;# 
  1121  008D                     	;# 
  1122  008E                     	;# 
  1123  0091                     	;# 
  1124  0092                     	;# 
  1125  0093                     	;# 
  1126  0094                     	;# 
  1127  0098                     	;# 
  1128  0099                     	;# 
  1129  009C                     	;# 
  1130  009D                     	;# 
  1131  009E                     	;# 
  1132  009F                     	;# 
  1133  010C                     	;# 
  1134  010D                     	;# 
  1135  010E                     	;# 
  1136  010F                     	;# 
  1137  018C                     	;# 
  1138  018D                     	;# 
  1139  0000                     	;# 
  1140  0001                     	;# 
  1141  0002                     	;# 
  1142  0003                     	;# 
  1143  0004                     	;# 
  1144  0005                     	;# 
  1145  0006                     	;# 
  1146  0007                     	;# 
  1147  0008                     	;# 
  1148  0009                     	;# 
  1149  000A                     	;# 
  1150  000B                     	;# 
  1151  000C                     	;# 
  1152  000D                     	;# 
  1153  000E                     	;# 
  1154  000E                     	;# 
  1155  000F                     	;# 
  1156  0010                     	;# 
  1157  0011                     	;# 
  1158  0012                     	;# 
  1159  0013                     	;# 
  1160  0014                     	;# 
  1161  0015                     	;# 
  1162  0015                     	;# 
  1163  0016                     	;# 
  1164  0017                     	;# 
  1165  0018                     	;# 
  1166  0019                     	;# 
  1167  001A                     	;# 
  1168  001B                     	;# 
  1169  001B                     	;# 
  1170  001C                     	;# 
  1171  001D                     	;# 
  1172  001E                     	;# 
  1173  001F                     	;# 
  1174  0081                     	;# 
  1175  0085                     	;# 
  1176  0086                     	;# 
  1177  0087                     	;# 
  1178  0088                     	;# 
  1179  0089                     	;# 
  1180  008C                     	;# 
  1181  008D                     	;# 
  1182  008E                     	;# 
  1183  0091                     	;# 
  1184  0092                     	;# 
  1185  0093                     	;# 
  1186  0094                     	;# 
  1187  0098                     	;# 
  1188  0099                     	;# 
  1189  009C                     	;# 
  1190  009D                     	;# 
  1191  009E                     	;# 
  1192  009F                     	;# 
  1193  010C                     	;# 
  1194  010D                     	;# 
  1195  010E                     	;# 
  1196  010F                     	;# 
  1197  018C                     	;# 
  1198  018D                     	;# 
  1199  0000                     	;# 
  1200  0001                     	;# 
  1201  0002                     	;# 
  1202  0003                     	;# 
  1203  0004                     	;# 
  1204  0005                     	;# 
  1205  0006                     	;# 
  1206  0007                     	;# 
  1207  0008                     	;# 
  1208  0009                     	;# 
  1209  000A                     	;# 
  1210  000B                     	;# 
  1211  000C                     	;# 
  1212  000D                     	;# 
  1213  000E                     	;# 
  1214  000E                     	;# 
  1215  000F                     	;# 
  1216  0010                     	;# 
  1217  0011                     	;# 
  1218  0012                     	;# 
  1219  0013                     	;# 
  1220  0014                     	;# 
  1221  0015                     	;# 
  1222  0015                     	;# 
  1223  0016                     	;# 
  1224  0017                     	;# 
  1225  0018                     	;# 
  1226  0019                     	;# 
  1227  001A                     	;# 
  1228  001B                     	;# 
  1229  001B                     	;# 
  1230  001C                     	;# 
  1231  001D                     	;# 
  1232  001E                     	;# 
  1233  001F                     	;# 
  1234  0081                     	;# 
  1235  0085                     	;# 
  1236  0086                     	;# 
  1237  0087                     	;# 
  1238  0088                     	;# 
  1239  0089                     	;# 
  1240  008C                     	;# 
  1241  008D                     	;# 
  1242  008E                     	;# 
  1243  0091                     	;# 
  1244  0092                     	;# 
  1245  0093                     	;# 
  1246  0094                     	;# 
  1247  0098                     	;# 
  1248  0099                     	;# 
  1249  009C                     	;# 
  1250  009D                     	;# 
  1251  009E                     	;# 
  1252  009F                     	;# 
  1253  010C                     	;# 
  1254  010D                     	;# 
  1255  010E                     	;# 
  1256  010F                     	;# 
  1257  018C                     	;# 
  1258  018D                     	;# 
  1259  0000                     	;# 
  1260  0001                     	;# 
  1261  0002                     	;# 
  1262  0003                     	;# 
  1263  0004                     	;# 
  1264  0005                     	;# 
  1265  0006                     	;# 
  1266  0007                     	;# 
  1267  0008                     	;# 
  1268  0009                     	;# 
  1269  000A                     	;# 
  1270  000B                     	;# 
  1271  000C                     	;# 
  1272  000D                     	;# 
  1273  000E                     	;# 
  1274  000E                     	;# 
  1275  000F                     	;# 
  1276  0010                     	;# 
  1277  0011                     	;# 
  1278  0012                     	;# 
  1279  0013                     	;# 
  1280  0014                     	;# 
  1281  0015                     	;# 
  1282  0015                     	;# 
  1283  0016                     	;# 
  1284  0017                     	;# 
  1285  0018                     	;# 
  1286  0019                     	;# 
  1287  001A                     	;# 
  1288  001B                     	;# 
  1289  001B                     	;# 
  1290  001C                     	;# 
  1291  001D                     	;# 
  1292  001E                     	;# 
  1293  001F                     	;# 
  1294  0081                     	;# 
  1295  0085                     	;# 
  1296  0086                     	;# 
  1297  0087                     	;# 
  1298  0088                     	;# 
  1299  0089                     	;# 
  1300  008C                     	;# 
  1301  008D                     	;# 
  1302  008E                     	;# 
  1303  0091                     	;# 
  1304  0092                     	;# 
  1305  0093                     	;# 
  1306  0094                     	;# 
  1307  0098                     	;# 
  1308  0099                     	;# 
  1309  009C                     	;# 
  1310  009D                     	;# 
  1311  009E                     	;# 
  1312  009F                     	;# 
  1313  010C                     	;# 
  1314  010D                     	;# 
  1315  010E                     	;# 
  1316  010F                     	;# 
  1317  018C                     	;# 
  1318  018D                     	;# 
  1319                           
  1320                           	psect	idataBANK1
  1321  0986                     __pidataBANK1:
  1322                           
  1323                           ;initializer for _g_SSD_DataArr
  1324  0986  343F               	retlw	63
  1325  0987  3406               	retlw	6
  1326  0988  345B               	retlw	91
  1327  0989  344F               	retlw	79
  1328  098A  3466               	retlw	102
  1329  098B  346D               	retlw	109
  1330  098C  347D               	retlw	125
  1331  098D  3407               	retlw	7
  1332  098E  347F               	retlw	127
  1333  098F  346F               	retlw	111
  1334                           
  1335                           ;initializer for _g_sw_states
  1336  0990  3401               	retlw	1
  1337  0991  3400               	retlw	0
  1338  0992  3400               	retlw	0
  1339                           
  1340                           ;initializer for _DIO_configuration
  1341  0993  3401               	retlw	1
  1342  0994  3402               	retlw	2
  1343  0995  3401               	retlw	1
  1344  0996  3401               	retlw	1
  1345  0997  3401               	retlw	1
  1346  0998  3400               	retlw	0
  1347  0999  3402               	retlw	2
  1348  099A  3402               	retlw	2
  1349  099B  3402               	retlw	2
  1350  099C  3405               	retlw	5
  1351  099D  3400               	retlw	0
  1352  099E  3402               	retlw	2
  1353  099F  3400               	retlw	0
  1354  09A0  3403               	retlw	3
  1355  09A1  3401               	retlw	1
  1356  09A2  3407               	retlw	7
  1357  09A3  3403               	retlw	3
  1358                           
  1359                           ;initializer for _SW_Configurations
  1360  09A4  3401               	retlw	1
  1361  09A5  3402               	retlw	2
  1362  09A6  3401               	retlw	1
  1363  09A7  3401               	retlw	1
  1364  09A8  3401               	retlw	1
  1365  09A9  3401               	retlw	1
  1366  09AA  3401               	retlw	1
  1367  09AB  3400               	retlw	0
  1368  09AC  3401               	retlw	1
  1369                           
  1370                           	psect	strings
  1371  1000                     __pstrings:
  1372  1000                     stringtab:
  1373  1000                     __stringtab:
  1374  1000                     stringcode:	
  1375                           ;	String table - string pointers are 1 byte each
  1376                           
  1377  1000                     stringdir:
  1378  1000  3010               	movlw	high stringdir
  1379  1001  008A               	movwf	10
  1380  1002  0804               	movf	4,w
  1381  1003  0A84               	incf	4,f
  1382  1004  0782               	addwf	2,f
  1383  1005                     __stringbase:
  1384  1005  3400               	retlw	0
  1385  1006                     __end_of__stringtab:
  1386  1006                     _Adc_configuration:
  1387  1006  3402               	retlw	2
  1388  1007  3401               	retlw	1
  1389  1008                     __end_of_Adc_configuration:
  1390                           
  1391                           	psect	nvBANK1
  1392  00EA                     __pnvBANK1:
  1393  00EA                     _g_TMR1_callback_ptr:
  1394  00EA                     	ds	1
  1395  0013                     _SSPBUF	set	19
  1396  0014                     _SSPCON	set	20
  1397  000F                     _TMR1H	set	15
  1398  000E                     _TMR1L	set	14
  1399  001E                     _ADRESH	set	30
  1400  001F                     _ADCON0	set	31
  1401  0009                     _PORTE	set	9
  1402  0008                     _PORTD	set	8
  1403  0007                     _PORTC	set	7
  1404  0006                     _PORTB	set	6
  1405  0005                     _PORTA	set	5
  1406  005F                     _GIE	set	95
  1407  005E                     _PEIE	set	94
  1408  0059                     _INTF	set	89
  1409  0060                     _TMR1IF	set	96
  1410  0080                     _TMR1ON	set	128
  1411  0085                     _T1CKPS1	set	133
  1412  0084                     _T1CKPS0	set	132
  1413  0081                     _TMR1CS	set	129
  1414  0093                     _SSPADD	set	147
  1415  0094                     _SSPSTAT	set	148
  1416  009E                     _ADRESL	set	158
  1417  009F                     _ADCON1	set	159
  1418  0089                     _TRISE	set	137
  1419  0088                     _TRISD	set	136
  1420  0087                     _TRISC	set	135
  1421  0086                     _TRISB	set	134
  1422  0085                     _TRISA	set	133
  1423  0460                     _TMR1IE	set	1120
  1424  04A0                     _BF	set	1184
  1425  048C                     _ACKEN	set	1164
  1426  048D                     _ACKDT	set	1165
  1427  04A2                     _R_W	set	1186
  1428  048B                     _RCEN	set	1163
  1429  048A                     _PEN	set	1162
  1430  0489                     _RSEN	set	1161
  1431  0488                     _SEN	set	1160
  1432                           
  1433                           	psect	cinit
  1434  0013                     start_initialization:	
  1435                           ; #config settings
  1436                           
  1437  0013                     __initialization:
  1438                           
  1439                           ; Initialize objects allocated to BANK1
  1440  0013  1383               	bcf	3,7	;select IRP bank0
  1441  0014  30C7               	movlw	low (__pdataBANK1+39)
  1442  0015  00FD               	movwf	btemp+-1
  1443  0016  3009               	movlw	high __pidataBANK1
  1444  0017  00FE               	movwf	btemp
  1445  0018  3086               	movlw	low __pidataBANK1
  1446  0019  00FF               	movwf	btemp+1
  1447  001A  30A0               	movlw	low __pdataBANK1
  1448  001B  0084               	movwf	4
  1449  001C  120A  158A  2038  120A  118A  	fcall	init_ram0
  1450                           
  1451                           ; Clear objects allocated to BANK1
  1452  0021  30C7               	movlw	low __pbssBANK1
  1453  0022  0084               	movwf	4
  1454  0023  30EA               	movlw	low (__pbssBANK1+35)
  1455  0024  160A  118A  2780  120A  118A  	fcall	clear_ram0
  1456                           
  1457                           ; Clear objects allocated to BANK0
  1458  0029  01E9               	clrf	__pbssBANK0& (0+127)
  1459  002A  01EA               	clrf	(__pbssBANK0+1)& (0+127)
  1460  002B  01EB               	clrf	(__pbssBANK0+2)& (0+127)
  1461  002C  01EC               	clrf	(__pbssBANK0+3)& (0+127)
  1462  002D  01ED               	clrf	(__pbssBANK0+4)& (0+127)
  1463  002E  01EE               	clrf	(__pbssBANK0+5)& (0+127)
  1464  002F  01EF               	clrf	(__pbssBANK0+6)& (0+127)
  1465                           
  1466                           ; Clear objects allocated to COMMON
  1467  0030  01F8               	clrf	__pbssCOMMON& (0+127)
  1468  0031  01F9               	clrf	(__pbssCOMMON+1)& (0+127)
  1469  0032  01FA               	clrf	(__pbssCOMMON+2)& (0+127)
  1470  0033                     end_of_initialization:	
  1471                           ;End of C runtime variable initialization code
  1472                           
  1473  0033                     __end_of__initialization:
  1474  0033  0183               	clrf	3
  1475  0034  160A  118A  2F78   	ljmp	_main	;jump to C main() function
  1476                           
  1477                           	psect	bssCOMMON
  1478  0078                     __pbssCOMMON:
  1479  0078                     _EWH_SysFlags:
  1480  0078                     	ds	1
  1481  0079                     _Dio_configuredChannels:
  1482  0079                     	ds	1
  1483  007A                     _Adc_Status:
  1484  007A                     	ds	1
  1485                           
  1486                           	psect	bssBANK0
  1487  0069                     __pbssBANK0:
  1488  0069                     Disp_updateValue_blink@blink:
  1489  0069                     	ds	2
  1490  006B                     _sw:
  1491  006B                     	ds	1
  1492  006C                     _g_curr_heater_state:
  1493  006C                     	ds	1
  1494  006D                     _g_ExtINT_callback_ptr:
  1495  006D                     	ds	1
  1496  006E                     _Dio_configuredPorts:
  1497  006E                     	ds	1
  1498  006F                     _Dio_status:
  1499  006F                     	ds	1
  1500                           
  1501                           	psect	bssBANK1
  1502  00C7                     __pbssBANK1:
  1503  00C7                     _EWH_TempSettings:
  1504  00C7                     	ds	5
  1505  00CC                     _g_SDA_config:
  1506  00CC                     	ds	3
  1507  00CF                     _g_SCL_config:
  1508  00CF                     	ds	3
  1509  00D2                     _EWH_SysTimes:
  1510  00D2                     	ds	3
  1511  00D5                     _g_SW_configs:
  1512  00D5                     	ds	1
  1513  00D6                     _g_LED_Config:
  1514  00D6                     	ds	3
  1515  00D9                     _g_SSD_DISP2_Enable_config:
  1516  00D9                     	ds	3
  1517  00DC                     _g_SSD_DISP1_Enable_config:
  1518  00DC                     	ds	3
  1519  00DF                     _g_coolingElement_config:
  1520  00DF                     	ds	3
  1521  00E2                     _g_lm35_config:
  1522  00E2                     	ds	3
  1523  00E5                     _g_HeatingElement_config:
  1524  00E5                     	ds	3
  1525  00E8                     _g_SSD_DataPortConfig:
  1526  00E8                     	ds	2
  1527                           
  1528                           	psect	dataBANK1
  1529  00A0                     __pdataBANK1:
  1530  00A0                     _g_SSD_DataArr:
  1531  00A0                     	ds	10
  1532  00AA                     _g_sw_states:
  1533  00AA                     	ds	3
  1534  00AD                     _DIO_configuration:
  1535  00AD                     	ds	17
  1536  00BE                     _SW_Configurations:
  1537  00BE                     	ds	9
  1538                           
  1539                           	psect	inittext
  1540  0834                     init_fetch0:	
  1541                           ;	Called with low address in FSR and high address in W
  1542                           
  1543  0834  087E               	movf	btemp,w
  1544  0835  008A               	movwf	10
  1545  0836  087F               	movf	btemp+1,w
  1546  0837  0082               	movwf	2
  1547  0838                     init_ram0:	
  1548                           ;Called with:
  1549                           ;	high address of idata address in btemp 
  1550                           ;	low address of idata address in btemp+1 
  1551                           ;	low address of data in FSR
  1552                           ;	high address + 1 of data in btemp-1
  1553                           
  1554  0838  120A  158A  2034  120A  158A  	fcall	init_fetch0
  1555  083D  0080               	movwf	0
  1556  083E  0A84               	incf	4,f
  1557  083F  0804               	movf	4,w
  1558  0840  067D               	xorwf	btemp+-1,w
  1559  0841  1903               	btfsc	3,2
  1560  0842  3400               	retlw	0
  1561  0843  0AFF               	incf	btemp+1,f
  1562  0844  1903               	btfsc	3,2
  1563  0845  0AFE               	incf	btemp,f
  1564  0846  2838               	goto	init_ram0
  1565                           
  1566                           	psect	clrtext
  1567  1780                     clear_ram0:	
  1568                           ;	Called with FSR containing the base address, and
  1569                           ;	W with the last address+1
  1570                           
  1571  1780  0064               	clrwdt	;clear the watchdog before getting into this loop
  1572  1781                     clrloop0:
  1573  1781  0180               	clrf	0	;clear RAM location pointed to by FSR
  1574  1782  0A84               	incf	4,f	;increment pointer
  1575  1783  0604               	xorwf	4,w	;XOR with final address
  1576  1784  1903               	btfsc	3,2	;have we reached the end yet?
  1577  1785  3400               	retlw	0	;all done for this memory range, return
  1578  1786  0604               	xorwf	4,w	;XOR again to restore value
  1579  1787  2F81               	goto	clrloop0	;do the next byte
  1580                           
  1581                           	psect	cstackCOMMON
  1582  0070                     __pcstackCOMMON:
  1583  0070                     ?_Heater_Off:
  1584  0070                     ?_Fan_Off:	
  1585                           ; 1 bytes @ 0x0
  1586                           
  1587  0070                     ?_Os_start:	
  1588                           ; 1 bytes @ 0x0
  1589                           
  1590  0070                     ?_Disp_turnDiplaysOff:	
  1591                           ; 1 bytes @ 0x0
  1592                           
  1593  0070                     ?_Disp_updateValue_blink:	
  1594                           ; 1 bytes @ 0x0
  1595                           
  1596  0070                     ?_Disp_updateValue:	
  1597                           ; 1 bytes @ 0x0
  1598                           
  1599  0070                     ?_Disp_init:	
  1600                           ; 1 bytes @ 0x0
  1601                           
  1602  0070                     ?_LED_init:	
  1603                           ; 1 bytes @ 0x0
  1604                           
  1605  0070                     ?_externalEEPROM_init:	
  1606                           ; 1 bytes @ 0x0
  1607                           
  1608  0070                     ?_Os_newTimerTick:	
  1609                           ; 1 bytes @ 0x0
  1610                           
  1611  0070                     ??_Os_newTimerTick:	
  1612                           ; 1 bytes @ 0x0
  1613                           
  1614  0070                     ?_Os_sch:	
  1615                           ; 1 bytes @ 0x0
  1616                           
  1617  0070                     ?_Adc_init:	
  1618                           ; 1 bytes @ 0x0
  1619                           
  1620  0070                     ?_Dio_Init:	
  1621                           ; 1 bytes @ 0x0
  1622                           
  1623  0070                     ?_Dio_ReadChannel:	
  1624                           ; 1 bytes @ 0x0
  1625                           
  1626  0070                     ?_Heater_setConfigurations:	
  1627                           ; 1 bytes @ 0x0
  1628                           
  1629  0070                     ?_Heater_init:	
  1630                           ; 1 bytes @ 0x0
  1631                           
  1632  0070                     ?_Heater_On:	
  1633                           ; 1 bytes @ 0x0
  1634                           
  1635  0070                     ?_lm35_setConfigurations:	
  1636                           ; 1 bytes @ 0x0
  1637                           
  1638  0070                     ?_LM35_Init:	
  1639                           ; 1 bytes @ 0x0
  1640                           
  1641  0070                     ?_Port_SetPortDirection:	
  1642                           ; 1 bytes @ 0x0
  1643                           
  1644  0070                     ?_SW_init:	
  1645                           ; 1 bytes @ 0x0
  1646                           
  1647  0070                     ?_SW_updateState:	
  1648                           ; 1 bytes @ 0x0
  1649                           
  1650  0070                     ?_SW_UpdateStates:	
  1651                           ; 1 bytes @ 0x0
  1652                           
  1653  0070                     ?_SW_getState:	
  1654                           ; 1 bytes @ 0x0
  1655                           
  1656  0070                     ?_SW_updateSamples:	
  1657                           ; 1 bytes @ 0x0
  1658                           
  1659  0070                     ?_fan_setConfigurations:	
  1660                           ; 1 bytes @ 0x0
  1661                           
  1662  0070                     ?_Fan_init:	
  1663                           ; 1 bytes @ 0x0
  1664                           
  1665  0070                     ?_Fan_On:	
  1666                           ; 1 bytes @ 0x0
  1667                           
  1668  0070                     ?_SysTimer_start:	
  1669                           ; 1 bytes @ 0x0
  1670                           
  1671  0070                     ?_Main_ISR:	
  1672                           ; 1 bytes @ 0x0
  1673                           
  1674  0070                     ??_Main_ISR:	
  1675                           ; 1 bytes @ 0x0
  1676                           
  1677  0070                     ?_Tmr1_setCallback:	
  1678                           ; 1 bytes @ 0x0
  1679                           
  1680  0070                     ?_main:	
  1681                           ; 1 bytes @ 0x0
  1682                           
  1683  0070                     ?_SW_Task:	
  1684                           ; 1 bytes @ 0x0
  1685                           
  1686  0070                     ?_TempSensing_Task:	
  1687                           ; 1 bytes @ 0x0
  1688                           
  1689  0070                     ?_Display_Task:	
  1690                           ; 1 bytes @ 0x0
  1691                           
  1692  0070                     ?_Active_Task:	
  1693                           ; 1 bytes @ 0x0
  1694                           
  1695  0070                     ?_TempControl_State:	
  1696                           ; 1 bytes @ 0x0
  1697                           
  1698  0070                     ?_TempSetting_State:	
  1699                           ; 1 bytes @ 0x0
  1700                           
  1701  0070                     ?_EWH_updateState:	
  1702                           ; 1 bytes @ 0x0
  1703                           
  1704  0070                     ?_EWH_initTask:	
  1705                           ; 1 bytes @ 0x0
  1706                           
  1707  0070                     ?_SSD_setConfigurations:	
  1708                           ; 1 bytes @ 0x0
  1709                           
  1710  0070                     ?_I2c_setConfigurations:	
  1711                           ; 1 bytes @ 0x0
  1712                           
  1713  0070                     ?_i2c_WaitForIdle:	
  1714                           ; 1 bytes @ 0x0
  1715                           
  1716  0070                     ?_I2C_Init:	
  1717                           ; 1 bytes @ 0x0
  1718                           
  1719  0070                     ?_I2C_Start:	
  1720                           ; 1 bytes @ 0x0
  1721                           
  1722  0070                     ?_I2C_Stop:	
  1723                           ; 1 bytes @ 0x0
  1724                           
  1725  0070                     ?_I2C_Write:	
  1726                           ; 1 bytes @ 0x0
  1727                           
  1728  0070                     ?_LED_setConfigurations:	
  1729                           ; 1 bytes @ 0x0
  1730                           
  1731                           
  1732                           ; 1 bytes @ 0x0
  1733  0070                     	ds	3
  1734  0073                     ??_Port_SetDirection:
  1735  0073                     ??_Disp_turnDiplaysOff:	
  1736                           ; 1 bytes @ 0x3
  1737                           
  1738  0073                     ??_externalEEPROM_init:	
  1739                           ; 1 bytes @ 0x3
  1740                           
  1741  0073                     ??_Adc_init:	
  1742                           ; 1 bytes @ 0x3
  1743                           
  1744  0073                     ??_Dio_Init:	
  1745                           ; 1 bytes @ 0x3
  1746                           
  1747  0073                     ?_Dio_WriteChannel:	
  1748                           ; 1 bytes @ 0x3
  1749                           
  1750  0073                     ??_Dio_ReadChannel:	
  1751                           ; 1 bytes @ 0x3
  1752                           
  1753  0073                     ??_Heater_setConfigurations:	
  1754                           ; 1 bytes @ 0x3
  1755                           
  1756  0073                     ??_lm35_setConfigurations:	
  1757                           ; 1 bytes @ 0x3
  1758                           
  1759  0073                     ??_Port_SetPortDirection:	
  1760                           ; 1 bytes @ 0x3
  1761                           
  1762  0073                     ??_SW_UpdateStates:	
  1763                           ; 1 bytes @ 0x3
  1764                           
  1765  0073                     ??_SW_getState:	
  1766                           ; 1 bytes @ 0x3
  1767                           
  1768  0073                     ??_fan_setConfigurations:	
  1769                           ; 1 bytes @ 0x3
  1770                           
  1771  0073                     ??_SysTimer_start:	
  1772                           ; 1 bytes @ 0x3
  1773                           
  1774  0073                     ??_Tmr1_setCallback:	
  1775                           ; 1 bytes @ 0x3
  1776                           
  1777  0073                     ??_SSD_setConfigurations:	
  1778                           ; 1 bytes @ 0x3
  1779                           
  1780  0073                     ??_I2c_setConfigurations:	
  1781                           ; 1 bytes @ 0x3
  1782                           
  1783  0073                     ??_i2c_WaitForIdle:	
  1784                           ; 1 bytes @ 0x3
  1785                           
  1786  0073                     ??_I2C_Init:	
  1787                           ; 1 bytes @ 0x3
  1788                           
  1789  0073                     ??_I2C_Start:	
  1790                           ; 1 bytes @ 0x3
  1791                           
  1792  0073                     ??_I2C_Stop:	
  1793                           ; 1 bytes @ 0x3
  1794                           
  1795  0073                     ??_I2C_Write:	
  1796                           ; 1 bytes @ 0x3
  1797                           
  1798  0073                     ??_LED_setConfigurations:	
  1799                           ; 1 bytes @ 0x3
  1800                           
  1801  0073                     ?___bmul:	
  1802                           ; 1 bytes @ 0x3
  1803                           
  1804  0073                     ?__Umul8_16:	
  1805                           ; 1 bytes @ 0x3
  1806                           
  1807  0073                     ?_Adc_readChannel:	
  1808                           ; 2 bytes @ 0x3
  1809                           
  1810  0073                     ?___awdiv:	
  1811                           ; 2 bytes @ 0x3
  1812                           
  1813  0073                     ?___awmod:	
  1814                           ; 2 bytes @ 0x3
  1815                           
  1816  0073                     ?___lwdiv:	
  1817                           ; 2 bytes @ 0x3
  1818                           
  1819  0073                     Dio_Init@error:	
  1820                           ; 2 bytes @ 0x3
  1821                           
  1822  0073                     Dio_WriteChannel@Level:	
  1823                           ; 1 bytes @ 0x3
  1824                           
  1825  0073                     SW_UpdateStates@new_pressed_Sw_flag:	
  1826                           ; 1 bytes @ 0x3
  1827                           
  1828  0073                     SW_getState@sw_index:	
  1829                           ; 1 bytes @ 0x3
  1830                           
  1831  0073                     Tmr1_setCallback@a_ptr:	
  1832                           ; 1 bytes @ 0x3
  1833                           
  1834  0073                     I2C_Write@v_i2cData_u8:	
  1835                           ; 1 bytes @ 0x3
  1836                           
  1837  0073                     ___bmul@multiplicand:	
  1838                           ; 1 bytes @ 0x3
  1839                           
  1840  0073                     __Umul8_16@multiplicand:	
  1841                           ; 1 bytes @ 0x3
  1842                           
  1843  0073                     ___awdiv@divisor:	
  1844                           ; 1 bytes @ 0x3
  1845                           
  1846  0073                     ___awmod@divisor:	
  1847                           ; 2 bytes @ 0x3
  1848                           
  1849  0073                     ___lwdiv@divisor:	
  1850                           ; 2 bytes @ 0x3
  1851                           
  1852                           
  1853                           ; 2 bytes @ 0x3
  1854  0073                     	ds	1
  1855  0074                     ?_externalEEPROM_writeU8Data:
  1856  0074                     ??_Dio_WriteChannel:	
  1857                           ; 1 bytes @ 0x4
  1858                           
  1859  0074                     ??___bmul:	
  1860                           ; 1 bytes @ 0x4
  1861                           
  1862  0074                     Dio_Init@ConfigPtr:	
  1863                           ; 1 bytes @ 0x4
  1864                           
  1865  0074                     SW_UpdateStates@itr:	
  1866                           ; 1 bytes @ 0x4
  1867                           
  1868  0074                     externalEEPROM_writeU8Data@Addr:	
  1869                           ; 1 bytes @ 0x4
  1870                           
  1871  0074                     ___bmul@product:	
  1872                           ; 1 bytes @ 0x4
  1873                           
  1874                           
  1875                           ; 1 bytes @ 0x4
  1876  0074                     	ds	1
  1877  0075                     ??_externalEEPROM_writeU8Data:
  1878  0075                     ??__Umul8_16:	
  1879                           ; 1 bytes @ 0x5
  1880                           
  1881  0075                     ??_Adc_readChannel:	
  1882                           ; 1 bytes @ 0x5
  1883                           
  1884  0075                     Adc_init@Config_Ptr:	
  1885                           ; 1 bytes @ 0x5
  1886                           
  1887  0075                     externalEEPROM_writeU8Data@Data:	
  1888                           ; 1 bytes @ 0x5
  1889                           
  1890  0075                     ___bmul@multiplier:	
  1891                           ; 1 bytes @ 0x5
  1892                           
  1893  0075                     Port_SetDirection@DDR_Ptr:	
  1894                           ; 1 bytes @ 0x5
  1895                           
  1896  0075                     Port_SetPortDirection@DDR_Ptr:	
  1897                           ; 2 bytes @ 0x5
  1898                           
  1899  0075                     ___awdiv@dividend:	
  1900                           ; 2 bytes @ 0x5
  1901                           
  1902  0075                     ___awmod@dividend:	
  1903                           ; 2 bytes @ 0x5
  1904                           
  1905  0075                     ___lwdiv@dividend:	
  1906                           ; 2 bytes @ 0x5
  1907                           
  1908                           
  1909                           ; 2 bytes @ 0x5
  1910  0075                     	ds	1
  1911  0076                     ?_Port_SetDirection:
  1912  0076                     ??_Active_Task:	
  1913                           ; 1 bytes @ 0x6
  1914                           
  1915                           
  1916                           ; 1 bytes @ 0x6
  1917  0076                     	ds	1
  1918  0077                     ??_SW_updateSamples:
  1919  0077                     ??_SW_Task:	
  1920                           ; 1 bytes @ 0x7
  1921                           
  1922  0077                     ??_TempSensing_Task:	
  1923                           ; 1 bytes @ 0x7
  1924                           
  1925  0077                     ??_TempSetting_State:	
  1926                           ; 1 bytes @ 0x7
  1927                           
  1928  0077                     ??___awdiv:	
  1929                           ; 1 bytes @ 0x7
  1930                           
  1931  0077                     ??___awmod:	
  1932                           ; 1 bytes @ 0x7
  1933                           
  1934  0077                     ??___lwdiv:	
  1935                           ; 1 bytes @ 0x7
  1936                           
  1937  0077                     Port_SetDirection@ConfigPtr:	
  1938                           ; 1 bytes @ 0x7
  1939                           
  1940  0077                     Port_SetPortDirection@ConfigPtr:	
  1941                           ; 1 bytes @ 0x7
  1942                           
  1943  0077                     Disp_updateValue@value:	
  1944                           ; 1 bytes @ 0x7
  1945                           
  1946                           
  1947                           ; 1 bytes @ 0x7
  1948  0077                     	ds	1
  1949  0078                     ??_Heater_Off:
  1950  0078                     ??_Fan_Off:	
  1951                           ; 1 bytes @ 0x8
  1952                           
  1953  0078                     ??_Os_start:	
  1954                           ; 1 bytes @ 0x8
  1955                           
  1956  0078                     ??_Disp_updateValue_blink:	
  1957                           ; 1 bytes @ 0x8
  1958                           
  1959  0078                     ??_Disp_init:	
  1960                           ; 1 bytes @ 0x8
  1961                           
  1962  0078                     ??_LED_init:	
  1963                           ; 1 bytes @ 0x8
  1964                           
  1965  0078                     ??_Os_sch:	
  1966                           ; 1 bytes @ 0x8
  1967                           
  1968  0078                     ??_Heater_init:	
  1969                           ; 1 bytes @ 0x8
  1970                           
  1971  0078                     ??_Heater_On:	
  1972                           ; 1 bytes @ 0x8
  1973                           
  1974  0078                     ??_LM35_Init:	
  1975                           ; 1 bytes @ 0x8
  1976                           
  1977  0078                     ??_SW_setConfigurations:	
  1978                           ; 1 bytes @ 0x8
  1979                           
  1980  0078                     ??_SW_init:	
  1981                           ; 1 bytes @ 0x8
  1982                           
  1983  0078                     ??_Fan_init:	
  1984                           ; 1 bytes @ 0x8
  1985                           
  1986  0078                     ??_Fan_On:	
  1987                           ; 1 bytes @ 0x8
  1988                           
  1989  0078                     ??_main:	
  1990                           ; 1 bytes @ 0x8
  1991                           
  1992  0078                     ??_Display_Task:	
  1993                           ; 1 bytes @ 0x8
  1994                           
  1995  0078                     ??_EWH_initTask:	
  1996                           ; 1 bytes @ 0x8
  1997                           
  1998                           
  1999                           	psect	cstackBANK0
  2000  0020                     __pcstackBANK0:	
  2001                           ; 1 bytes @ 0x8
  2002                           
  2003  0020                     Adc_readChannel@channel:
  2004  0020                     Dio_WriteChannel@error:	
  2005                           ; 1 bytes @ 0x0
  2006                           
  2007  0020                     Dio_ReadChannel@ChannelLevel:	
  2008                           ; 1 bytes @ 0x0
  2009                           
  2010  0020                     SW_setConfigurations@config_PTR:	
  2011                           ; 1 bytes @ 0x0
  2012                           
  2013  0020                     ___awdiv@counter:	
  2014                           ; 1 bytes @ 0x0
  2015                           
  2016  0020                     ___awmod@counter:	
  2017                           ; 1 bytes @ 0x0
  2018                           
  2019  0020                     ___lwdiv@counter:	
  2020                           ; 1 bytes @ 0x0
  2021                           
  2022  0020                     __Umul8_16@product:	
  2023                           ; 1 bytes @ 0x0
  2024                           
  2025                           
  2026                           ; 2 bytes @ 0x0
  2027  0020                     	ds	1
  2028  0021                     Dio_ReadChannel@error:
  2029  0021                     SW_setConfigurations@itr:	
  2030                           ; 1 bytes @ 0x1
  2031                           
  2032  0021                     ___awdiv@sign:	
  2033                           ; 1 bytes @ 0x1
  2034                           
  2035  0021                     ___awmod@sign:	
  2036                           ; 1 bytes @ 0x1
  2037                           
  2038  0021                     Adc_readChannel@Adc_result:	
  2039                           ; 1 bytes @ 0x1
  2040                           
  2041  0021                     Dio_WriteChannel@port_ptr:	
  2042                           ; 2 bytes @ 0x1
  2043                           
  2044  0021                     ___lwdiv@quotient:	
  2045                           ; 2 bytes @ 0x1
  2046                           
  2047                           
  2048                           ; 2 bytes @ 0x1
  2049  0021                     	ds	1
  2050  0022                     ?_SW_setConfigurations:
  2051  0022                     Dio_ReadChannel@pin_ptr:	
  2052                           ; 1 bytes @ 0x2
  2053                           
  2054  0022                     ___awdiv@quotient:	
  2055                           ; 2 bytes @ 0x2
  2056                           
  2057  0022                     __Umul8_16@word_mpld:	
  2058                           ; 2 bytes @ 0x2
  2059                           
  2060                           
  2061                           ; 2 bytes @ 0x2
  2062  0022                     	ds	1
  2063  0023                     ?___xxtofl:
  2064  0023                     Dio_WriteChannel@ChannelId:	
  2065                           ; 4 bytes @ 0x3
  2066                           
  2067  0023                     ___xxtofl@val:	
  2068                           ; 1 bytes @ 0x3
  2069                           
  2070                           
  2071                           ; 4 bytes @ 0x3
  2072  0023                     	ds	1
  2073  0024                     ?_Dio_WritePort:
  2074  0024                     ??_TempControl_State:	
  2075                           ; 1 bytes @ 0x4
  2076                           
  2077  0024                     Dio_WritePort@Level:	
  2078                           ; 1 bytes @ 0x4
  2079                           
  2080  0024                     Dio_ReadChannel@ChannelId:	
  2081                           ; 1 bytes @ 0x4
  2082                           
  2083  0024                     __Umul8_16@multiplier:	
  2084                           ; 1 bytes @ 0x4
  2085                           
  2086                           
  2087                           ; 1 bytes @ 0x4
  2088  0024                     	ds	1
  2089  0025                     ??_Dio_WritePort:
  2090  0025                     ??_SW_updateState:	
  2091                           ; 1 bytes @ 0x5
  2092                           
  2093  0025                     ?___flmul:	
  2094                           ; 1 bytes @ 0x5
  2095                           
  2096  0025                     ___flmul@b:	
  2097                           ; 4 bytes @ 0x5
  2098                           
  2099                           
  2100                           ; 4 bytes @ 0x5
  2101  0025                     	ds	2
  2102  0027                     ??___xxtofl:
  2103                           
  2104                           ; 1 bytes @ 0x7
  2105  0027                     	ds	1
  2106  0028                     Dio_WritePort@error:
  2107                           
  2108                           ; 1 bytes @ 0x8
  2109  0028                     	ds	1
  2110  0029                     Dio_WritePort@PortId:
  2111  0029                     SW_updateState@sw_state:	
  2112                           ; 1 bytes @ 0x9
  2113                           
  2114  0029                     ___flmul@a:	
  2115                           ; 1 bytes @ 0x9
  2116                           
  2117                           
  2118                           ; 4 bytes @ 0x9
  2119  0029                     	ds	1
  2120  002A                     SW_updateState@sw_index:
  2121  002A                     Dio_WritePort@port_ptr:	
  2122                           ; 1 bytes @ 0xA
  2123                           
  2124                           
  2125                           ; 2 bytes @ 0xA
  2126  002A                     	ds	1
  2127  002B                     ??_EWH_updateState:
  2128  002B                     ___xxtofl@sign:	
  2129                           ; 1 bytes @ 0xB
  2130                           
  2131                           
  2132                           ; 1 bytes @ 0xB
  2133  002B                     	ds	1
  2134  002C                     ??_Disp_updateValue:
  2135  002C                     ___xxtofl@exp:	
  2136                           ; 1 bytes @ 0xC
  2137                           
  2138                           
  2139                           ; 1 bytes @ 0xC
  2140  002C                     	ds	1
  2141  002D                     ??___flmul:
  2142  002D                     ___xxtofl@arg:	
  2143                           ; 1 bytes @ 0xD
  2144                           
  2145                           
  2146                           ; 4 bytes @ 0xD
  2147  002D                     	ds	1
  2148  002E                     Disp_updateValue_blink@value:
  2149                           
  2150                           ; 1 bytes @ 0xE
  2151  002E                     	ds	4
  2152  0032                     ___flmul@sign:
  2153                           
  2154                           ; 1 bytes @ 0x12
  2155  0032                     	ds	1
  2156  0033                     ___flmul@grs:
  2157                           
  2158                           ; 4 bytes @ 0x13
  2159  0033                     	ds	4
  2160  0037                     ___flmul@aexp:
  2161                           
  2162                           ; 1 bytes @ 0x17
  2163  0037                     	ds	1
  2164  0038                     ___flmul@bexp:
  2165                           
  2166                           ; 1 bytes @ 0x18
  2167  0038                     	ds	1
  2168  0039                     ___flmul@prod:
  2169                           
  2170                           ; 4 bytes @ 0x19
  2171  0039                     	ds	4
  2172  003D                     ___flmul@temp:
  2173                           
  2174                           ; 2 bytes @ 0x1D
  2175  003D                     	ds	2
  2176  003F                     ?___fltol:
  2177  003F                     ?___fldiv:	
  2178                           ; 4 bytes @ 0x1F
  2179                           
  2180  003F                     ___fltol@f1:	
  2181                           ; 4 bytes @ 0x1F
  2182                           
  2183  003F                     ___fldiv@a:	
  2184                           ; 4 bytes @ 0x1F
  2185                           
  2186                           
  2187                           ; 4 bytes @ 0x1F
  2188  003F                     	ds	4
  2189  0043                     ??___fltol:
  2190  0043                     ___fldiv@b:	
  2191                           ; 1 bytes @ 0x23
  2192                           
  2193                           
  2194                           ; 4 bytes @ 0x23
  2195  0043                     	ds	4
  2196  0047                     ??___fldiv:
  2197  0047                     ___fltol@sign1:	
  2198                           ; 1 bytes @ 0x27
  2199                           
  2200                           
  2201                           ; 1 bytes @ 0x27
  2202  0047                     	ds	1
  2203  0048                     ___fltol@exp1:
  2204                           
  2205                           ; 1 bytes @ 0x28
  2206  0048                     	ds	4
  2207  004C                     ___fldiv@rem:
  2208                           
  2209                           ; 4 bytes @ 0x2C
  2210  004C                     	ds	4
  2211  0050                     ___fldiv@sign:
  2212                           
  2213                           ; 1 bytes @ 0x30
  2214  0050                     	ds	1
  2215  0051                     ___fldiv@new_exp:
  2216                           
  2217                           ; 2 bytes @ 0x31
  2218  0051                     	ds	2
  2219  0053                     ___fldiv@grs:
  2220                           
  2221                           ; 4 bytes @ 0x33
  2222  0053                     	ds	4
  2223  0057                     ___fldiv@bexp:
  2224                           
  2225                           ; 1 bytes @ 0x37
  2226  0057                     	ds	1
  2227  0058                     ___fldiv@aexp:
  2228                           
  2229                           ; 1 bytes @ 0x38
  2230  0058                     	ds	1
  2231  0059                     ?_LM35_ReadTemp:
  2232                           
  2233                           ; 2 bytes @ 0x39
  2234  0059                     	ds	2
  2235  005B                     ??_LM35_ReadTemp:
  2236                           
  2237                           ; 1 bytes @ 0x3B
  2238  005B                     	ds	4
  2239  005F                     LM35_ReadTemp@dig:
  2240                           
  2241                           ; 4 bytes @ 0x3F
  2242  005F                     	ds	4
  2243  0063                     LM35_ReadTemp@temp:
  2244                           
  2245                           ; 2 bytes @ 0x43
  2246  0063                     	ds	2
  2247  0065                     LM35_ReadTemp@volt:
  2248                           
  2249                           ; 4 bytes @ 0x45
  2250  0065                     	ds	4
  2251                           
  2252                           	psect	maintext
  2253  1778                     __pmaintext:	
  2254 ;;
  2255 ;;Main: autosize = 0, tempsize = 0, incstack = 0, save=0
  2256 ;;
  2257 ;; *************** function _main *****************
  2258 ;; Defined at:
  2259 ;;		line 9 in file "main.c"
  2260 ;; Parameters:    Size  Location     Type
  2261 ;;		None
  2262 ;; Auto vars:     Size  Location     Type
  2263 ;;		None
  2264 ;; Return value:  Size  Location     Type
  2265 ;;                  1    wreg      void 
  2266 ;; Registers used:
  2267 ;;		wreg, fsr0l, fsr0h, status,2, status,0, btemp+1, pclath, cstack
  2268 ;; Tracked objects:
  2269 ;;		On entry : B00/0
  2270 ;;		On exit  : 0/0
  2271 ;;		Unchanged: 0/0
  2272 ;; Data sizes:     COMMON   BANK0   BANK1   BANK3   BANK2
  2273 ;;      Params:         0       0       0       0       0
  2274 ;;      Locals:         0       0       0       0       0
  2275 ;;      Temps:          0       0       0       0       0
  2276 ;;      Totals:         0       0       0       0       0
  2277 ;;Total ram usage:        0 bytes
  2278 ;; Hardware stack levels required when called:    9
  2279 ;; This function calls:
  2280 ;;		_Os_start
  2281 ;; This function is called by:
  2282 ;;		Startup code after reset
  2283 ;; This function uses a non-reentrant model
  2284 ;;
  2285                           
  2286                           
  2287                           ;psect for function _main
  2288  1778                     _main:
  2289  1778                     l4473:	
  2290                           ;incstack = 0
  2291 ;; hardware stack exceeded
  2292                           ; Regs used in _main: [wreg-fsr0h+status,2+status,0+btemp+1+pclath+cstack]
  2293                           
  2294                           
  2295                           ;main.c: 10:     Os_start() ;
  2296  1778  120A  158A  20EB  160A  118A  	fcall	_Os_start
  2297  177D                     l323:
  2298  177D  120A  118A  2810   	ljmp	start
  2299  1780                     __end_of_main:
  2300                           
  2301                           	psect	text1
  2302  08EB                     __ptext1:	
  2303 ;; *************** function _Os_start *****************
  2304 ;; Defined at:
  2305 ;;		line 14 in file "Os.c"
  2306 ;; Parameters:    Size  Location     Type
  2307 ;;		None
  2308 ;; Auto vars:     Size  Location     Type
  2309 ;;		None
  2310 ;; Return value:  Size  Location     Type
  2311 ;;                  1    wreg      void 
  2312 ;; Registers used:
  2313 ;;		wreg, fsr0l, fsr0h, status,2, status,0, btemp+1, pclath, cstack
  2314 ;; Tracked objects:
  2315 ;;		On entry : 0/0
  2316 ;;		On exit  : 0/0
  2317 ;;		Unchanged: 0/0
  2318 ;; Data sizes:     COMMON   BANK0   BANK1   BANK3   BANK2
  2319 ;;      Params:         0       0       0       0       0
  2320 ;;      Locals:         0       0       0       0       0
  2321 ;;      Temps:          0       0       0       0       0
  2322 ;;      Totals:         0       0       0       0       0
  2323 ;;Total ram usage:        0 bytes
  2324 ;; Hardware stack levels used:    1
  2325 ;; Hardware stack levels required when called:    8
  2326 ;; This function calls:
  2327 ;;		_EWH_initTask
  2328 ;;		_Os_sch
  2329 ;;		_SysTimer_start
  2330 ;;		_Tmr1_setCallback
  2331 ;; This function is called by:
  2332 ;;		_main
  2333 ;; This function uses a non-reentrant model
  2334 ;;
  2335                           
  2336                           
  2337                           ;psect for function _Os_start
  2338  08EB                     _Os_start:
  2339  08EB                     l4459:	
  2340                           ;incstack = 0
  2341 ;; hardware stack exceeded
  2342                           ; Regs used in _Os_start: [wreg-fsr0h+status,2+status,0+btemp+1+pclath+cstack]
  2343                           
  2344                           
  2345                           ;Os.c: 17:     Tmr1_setCallback(Os_newTimerTick);
  2346  08EB  3001               	movlw	(low (fp__Os_newTimerTick-i1fpbase))& (0+255)
  2347  08EC  160A  118A  2770  120A  158A  	fcall	_Tmr1_setCallback
  2348  08F1                     l4461:
  2349                           
  2350                           ;Os.c: 18:     (TMR1IE=1);
  2351  08F1  1683               	bsf	3,5	;RP0=1, select bank1
  2352  08F2  1303               	bcf	3,6	;RP1=0, select bank1
  2353  08F3  140C               	bsf	12,0	;volatile
  2354  08F4                     l4463:
  2355                           
  2356                           ;Os.c: 21:     EWH_initTask();
  2357  08F4  120A  158A  2499  120A  158A  	fcall	_EWH_initTask
  2358  08F9                     l4465:
  2359                           
  2360                           ;Os.c: 24:     (PEIE =1);
  2361  08F9  170B               	bsf	11,6	;volatile
  2362  08FA                     l4467:
  2363                           
  2364                           ;Os.c: 25:     (GIE=1);
  2365  08FA  178B               	bsf	11,7	;volatile
  2366  08FB                     l4469:
  2367                           
  2368                           ;Os.c: 28:     SysTimer_start();
  2369  08FB  160A  118A  2768  120A  158A  	fcall	_SysTimer_start
  2370  0900                     l4471:
  2371                           
  2372                           ;Os.c: 31:     Os_sch();
  2373  0900  120A  158A  2201  120A  158A  	fcall	_Os_sch
  2374  0905                     l634:
  2375  0905  0008               	return
  2376  0906                     __end_of_Os_start:
  2377                           
  2378                           	psect	text2
  2379  1770                     __ptext2:	
  2380 ;; *************** function _Tmr1_setCallback *****************
  2381 ;; Defined at:
  2382 ;;		line 29 in file "INTHandelrs.c"
  2383 ;; Parameters:    Size  Location     Type
  2384 ;;  a_ptr           1    wreg     PTR FTN()void 
  2385 ;;		 -> Os_newTimerTick(1), 
  2386 ;; Auto vars:     Size  Location     Type
  2387 ;;  a_ptr           1    3[COMMON] PTR FTN()void 
  2388 ;;		 -> Os_newTimerTick(1), 
  2389 ;; Return value:  Size  Location     Type
  2390 ;;                  1    wreg      void 
  2391 ;; Registers used:
  2392 ;;		wreg, btemp+1
  2393 ;; Tracked objects:
  2394 ;;		On entry : 0/0
  2395 ;;		On exit  : 0/0
  2396 ;;		Unchanged: 0/0
  2397 ;; Data sizes:     COMMON   BANK0   BANK1   BANK3   BANK2
  2398 ;;      Params:         0       0       0       0       0
  2399 ;;      Locals:         1       0       0       0       0
  2400 ;;      Temps:          0       0       0       0       0
  2401 ;;      Totals:         1       0       0       0       0
  2402 ;;Total ram usage:        1 bytes
  2403 ;; Hardware stack levels used:    1
  2404 ;; Hardware stack levels required when called:    2
  2405 ;; This function calls:
  2406 ;;		Nothing
  2407 ;; This function is called by:
  2408 ;;		_Os_start
  2409 ;; This function uses a non-reentrant model
  2410 ;;
  2411                           
  2412                           
  2413                           ;psect for function _Tmr1_setCallback
  2414  1770                     _Tmr1_setCallback:
  2415                           
  2416                           ;incstack = 0
  2417                           ; Regs used in _Tmr1_setCallback: [wreg+btemp+1]
  2418                           ;Tmr1_setCallback@a_ptr stored from wreg
  2419  1770  00F3               	movwf	Tmr1_setCallback@a_ptr
  2420  1771                     l3607:
  2421                           
  2422                           ;INTHandelrs.c: 30:     g_TMR1_callback_ptr = a_ptr;
  2423  1771  0873               	movf	Tmr1_setCallback@a_ptr,w
  2424  1772  00FF               	movwf	btemp+1
  2425  1773  087F               	movf	btemp+1,w
  2426  1774  1683               	bsf	3,5	;RP0=1, select bank1
  2427  1775  1303               	bcf	3,6	;RP1=0, select bank1
  2428  1776  00EA               	movwf	_g_TMR1_callback_ptr^(0+128)
  2429  1777                     l313:
  2430  1777  0008               	return
  2431  1778                     __end_of_Tmr1_setCallback:
  2432                           
  2433                           	psect	text3
  2434  1768                     __ptext3:	
  2435 ;; *************** function _SysTimer_start *****************
  2436 ;; Defined at:
  2437 ;;		line 26 in file "timer.c"
  2438 ;; Parameters:    Size  Location     Type
  2439 ;;		None
  2440 ;; Auto vars:     Size  Location     Type
  2441 ;;		None
  2442 ;; Return value:  Size  Location     Type
  2443 ;;                  1    wreg      void 
  2444 ;; Registers used:
  2445 ;;		wreg
  2446 ;; Tracked objects:
  2447 ;;		On entry : 0/0
  2448 ;;		On exit  : 0/0
  2449 ;;		Unchanged: 0/0
  2450 ;; Data sizes:     COMMON   BANK0   BANK1   BANK3   BANK2
  2451 ;;      Params:         0       0       0       0       0
  2452 ;;      Locals:         0       0       0       0       0
  2453 ;;      Temps:          0       0       0       0       0
  2454 ;;      Totals:         0       0       0       0       0
  2455 ;;Total ram usage:        0 bytes
  2456 ;; Hardware stack levels used:    1
  2457 ;; Hardware stack levels required when called:    2
  2458 ;; This function calls:
  2459 ;;		Nothing
  2460 ;; This function is called by:
  2461 ;;		_Os_start
  2462 ;; This function uses a non-reentrant model
  2463 ;;
  2464                           
  2465                           
  2466                           ;psect for function _SysTimer_start
  2467  1768                     _SysTimer_start:
  2468  1768                     l2223:	
  2469                           ;incstack = 0
  2470                           ; Regs used in _SysTimer_start: [wreg]
  2471                           
  2472                           
  2473                           ;timer.c: 28:     TMR1L = 0x05 ;
  2474  1768  3005               	movlw	5
  2475  1769  1283               	bcf	3,5	;RP0=0, select bank0
  2476  176A  1303               	bcf	3,6	;RP1=0, select bank0
  2477  176B  008E               	movwf	14	;volatile
  2478                           
  2479                           ;timer.c: 29:     TMR1H = 0xFF ;
  2480  176C  30FF               	movlw	255
  2481  176D  008F               	movwf	15	;volatile
  2482  176E                     l2225:
  2483                           
  2484                           ;timer.c: 30:     TMR1ON = 1 ;
  2485  176E  1410               	bsf	16,0	;volatile
  2486  176F                     l293:
  2487  176F  0008               	return
  2488  1770                     __end_of_SysTimer_start:
  2489                           
  2490                           	psect	text4
  2491  0A01                     __ptext4:	
  2492 ;; *************** function _Os_sch *****************
  2493 ;; Defined at:
  2494 ;;		line 69 in file "Os.c"
  2495 ;; Parameters:    Size  Location     Type
  2496 ;;		None
  2497 ;; Auto vars:     Size  Location     Type
  2498 ;;		None
  2499 ;; Return value:  Size  Location     Type
  2500 ;;                  1    wreg      void 
  2501 ;; Registers used:
  2502 ;;		wreg, fsr0l, fsr0h, status,2, status,0, btemp+1, pclath, cstack
  2503 ;; Tracked objects:
  2504 ;;		On entry : 0/0
  2505 ;;		On exit  : 0/0
  2506 ;;		Unchanged: 0/0
  2507 ;; Data sizes:     COMMON   BANK0   BANK1   BANK3   BANK2
  2508 ;;      Params:         0       0       0       0       0
  2509 ;;      Locals:         0       0       0       0       0
  2510 ;;      Temps:          0       0       0       0       0
  2511 ;;      Totals:         0       0       0       0       0
  2512 ;;Total ram usage:        0 bytes
  2513 ;; Hardware stack levels used:    1
  2514 ;; Hardware stack levels required when called:    7
  2515 ;; This function calls:
  2516 ;;		_Active_Task
  2517 ;;		_Display_Task
  2518 ;;		_EWH_updateState
  2519 ;;		_SW_Task
  2520 ;;		_TempSensing_Task
  2521 ;; This function is called by:
  2522 ;;		_Os_start
  2523 ;; This function uses a non-reentrant model
  2524 ;;
  2525                           
  2526                           
  2527                           ;psect for function _Os_sch
  2528  0A01                     _Os_sch:
  2529  0A01                     l646:	
  2530                           ;incstack = 0
  2531 ;; hardware stack exceeded
  2532                           ; Regs used in _Os_sch: [wreg-fsr0h+status,2+status,0+btemp+1+pclath+cstack]
  2533                           ;Os.c: 70:     while (1) {
  2534                           
  2535  0A01                     l4433:
  2536                           
  2537                           ;Os.c: 71:         EWH_updateState();
  2538  0A01  120A  158A  2260  120A  158A  	fcall	_EWH_updateState
  2539  0A06                     l4435:
  2540                           
  2541                           ;Os.c: 73:         if (EWH_SysFlags.display_time_flag == 1)
  2542  0A06  1D78               	btfss	_EWH_SysFlags,2
  2543  0A07  2A09               	goto	u4831
  2544  0A08  2A0A               	goto	u4830
  2545  0A09                     u4831:
  2546  0A09  2A10               	goto	l4441
  2547  0A0A                     u4830:
  2548  0A0A                     l4437:
  2549                           
  2550                           ;Os.c: 74:         {;Os.c: 75:             Display_Task();
  2551  0A0A  120A  158A  2162  120A  158A  	fcall	_Display_Task
  2552  0A0F                     l4439:
  2553                           
  2554                           ;Os.c: 76:             EWH_SysFlags.display_time_flag = 0;
  2555  0A0F  1178               	bcf	_EWH_SysFlags,2
  2556  0A10                     l4441:
  2557                           
  2558                           ;Os.c: 78:         if (EWH_SysFlags.temp_sensing_time_flag == 1)
  2559  0A10  1CF8               	btfss	_EWH_SysFlags,1
  2560  0A11  2A13               	goto	u4841
  2561  0A12  2A14               	goto	u4840
  2562  0A13                     u4841:
  2563  0A13  2A1A               	goto	l4447
  2564  0A14                     u4840:
  2565  0A14                     l4443:
  2566                           
  2567                           ;Os.c: 79:         {;Os.c: 80:             TempSensing_Task();
  2568  0A14  120A  158A  2298  120A  158A  	fcall	_TempSensing_Task
  2569  0A19                     l4445:
  2570                           
  2571                           ;Os.c: 81:             EWH_SysFlags.temp_sensing_time_flag = 0;
  2572  0A19  10F8               	bcf	_EWH_SysFlags,1
  2573  0A1A                     l4447:
  2574                           
  2575                           ;Os.c: 83:         if (EWH_SysFlags.SW_time_flag == 1)
  2576  0A1A  1EF8               	btfss	_EWH_SysFlags,5
  2577  0A1B  2A1D               	goto	u4851
  2578  0A1C  2A1E               	goto	u4850
  2579  0A1D                     u4851:
  2580  0A1D  2A24               	goto	l4453
  2581  0A1E                     u4850:
  2582  0A1E                     l4449:
  2583                           
  2584                           ;Os.c: 84:         {;Os.c: 85:             SW_Task();
  2585  0A1E  120A  158A  2450  120A  158A  	fcall	_SW_Task
  2586  0A23                     l4451:
  2587                           
  2588                           ;Os.c: 86:             EWH_SysFlags.SW_time_flag = 0;
  2589  0A23  12F8               	bcf	_EWH_SysFlags,5
  2590  0A24                     l4453:
  2591                           
  2592                           ;Os.c: 88:      if (EWH_SysFlags.pressed_Sw_timeout == 1)
  2593  0A24  1E78               	btfss	_EWH_SysFlags,4
  2594  0A25  2A27               	goto	u4861
  2595  0A26  2A28               	goto	u4860
  2596  0A27                     u4861:
  2597  0A27  2A01               	goto	l646
  2598  0A28                     u4860:
  2599  0A28                     l4455:
  2600                           
  2601                           ;Os.c: 89:         {;Os.c: 90:             Active_Task() ;
  2602  0A28  120A  158A  20B6  120A  158A  	fcall	_Active_Task
  2603  0A2D                     l4457:
  2604                           
  2605                           ;Os.c: 91:             EWH_SysFlags.pressed_Sw_timeout = 0;
  2606  0A2D  1278               	bcf	_EWH_SysFlags,4
  2607  0A2E  2A01               	goto	l646
  2608  0A2F  0008               	return
  2609  0A30                     __end_of_Os_sch:
  2610                           
  2611                           	psect	text5
  2612  0A98                     __ptext5:	
  2613 ;; *************** function _TempSensing_Task *****************
  2614 ;; Defined at:
  2615 ;;		line 82 in file "ElectricWaterHeater.c"
  2616 ;; Parameters:    Size  Location     Type
  2617 ;;		None
  2618 ;; Auto vars:     Size  Location     Type
  2619 ;;		None
  2620 ;; Return value:  Size  Location     Type
  2621 ;;                  1    wreg      void 
  2622 ;; Registers used:
  2623 ;;		wreg, status,2, status,0, btemp+1, pclath, cstack
  2624 ;; Tracked objects:
  2625 ;;		On entry : 0/0
  2626 ;;		On exit  : 0/0
  2627 ;;		Unchanged: 0/0
  2628 ;; Data sizes:     COMMON   BANK0   BANK1   BANK3   BANK2
  2629 ;;      Params:         0       0       0       0       0
  2630 ;;      Locals:         0       0       0       0       0
  2631 ;;      Temps:          0       0       0       0       0
  2632 ;;      Totals:         0       0       0       0       0
  2633 ;;Total ram usage:        0 bytes
  2634 ;; Hardware stack levels used:    1
  2635 ;; Hardware stack levels required when called:    5
  2636 ;; This function calls:
  2637 ;;		_LM35_ReadTemp
  2638 ;;		___lwdiv
  2639 ;; This function is called by:
  2640 ;;		_Os_sch
  2641 ;; This function uses a non-reentrant model
  2642 ;;
  2643                           
  2644                           
  2645                           ;psect for function _TempSensing_Task
  2646  0A98                     _TempSensing_Task:
  2647  0A98                     l4357:	
  2648                           ;incstack = 0
  2649                           ; Regs used in _TempSensing_Task: [wreg+status,2+status,0+btemp+1+pclath+cstack]
  2650                           
  2651                           
  2652                           ;ElectricWaterHeater.c: 83:     EWH_TempSettings.g_curr_waterTemp = EWH_TempSettings.g_c
      +                          urr_waterTemp + LM35_ReadTemp();
  2653  0A98  120A  118A  263B  120A  158A  	fcall	_LM35_ReadTemp
  2654  0A9D  1683               	bsf	3,5	;RP0=1, select bank1
  2655  0A9E  1303               	bcf	3,6	;RP1=0, select bank1
  2656  0A9F  084A               	movf	(_EWH_TempSettings^(0+128)+3),w
  2657  0AA0  1283               	bcf	3,5	;RP0=0, select bank0
  2658  0AA1  1303               	bcf	3,6	;RP1=0, select bank0
  2659  0AA2  0759               	addwf	?_LM35_ReadTemp,w
  2660  0AA3  1683               	bsf	3,5	;RP0=1, select bank1
  2661  0AA4  1303               	bcf	3,6	;RP1=0, select bank1
  2662  0AA5  00CA               	movwf	(_EWH_TempSettings^(0+128)+3)
  2663  0AA6  084B               	movf	((_EWH_TempSettings+1)^(0+128)+3),w
  2664  0AA7  1803               	skipnc
  2665  0AA8  0A4B               	incf	((_EWH_TempSettings+1)^(0+128)+3),w
  2666  0AA9  1283               	bcf	3,5	;RP0=0, select bank0
  2667  0AAA  1303               	bcf	3,6	;RP1=0, select bank0
  2668  0AAB  075A               	addwf	?_LM35_ReadTemp+1,w
  2669  0AAC  1683               	bsf	3,5	;RP0=1, select bank1
  2670  0AAD  1303               	bcf	3,6	;RP1=0, select bank1
  2671  0AAE  00CB               	movwf	((_EWH_TempSettings+1)^(0+128)+3)
  2672  0AAF                     l4359:
  2673                           
  2674                           ;ElectricWaterHeater.c: 84:     EWH_TempSettings.g_Curr_temp_readings++;
  2675  0AAF  3001               	movlw	1
  2676  0AB0  00FF               	movwf	btemp+1
  2677  0AB1  087F               	movf	btemp+1,w
  2678  0AB2  07C8               	addwf	(_EWH_TempSettings^(0+128)+1),f
  2679  0AB3                     l4361:
  2680                           
  2681                           ;ElectricWaterHeater.c: 85:     if (EWH_TempSettings.g_Curr_temp_readings == 10) {
  2682  0AB3  300A               	movlw	10
  2683  0AB4  0648               	xorwf	(_EWH_TempSettings^(0+128)+1),w
  2684  0AB5  1D03               	btfss	3,2
  2685  0AB6  2AB8               	goto	u4801
  2686  0AB7  2AB9               	goto	u4800
  2687  0AB8                     u4801:
  2688  0AB8  2ACF               	goto	l394
  2689  0AB9                     u4800:
  2690  0AB9                     l4363:
  2691                           
  2692                           ;ElectricWaterHeater.c: 91:         EWH_TempSettings. g_avg_waterTemp = (EWH_TempSetting
      +                          s.g_curr_waterTemp / 10);
  2693  0AB9  300A               	movlw	10
  2694  0ABA  00F3               	movwf	___lwdiv@divisor
  2695  0ABB  3000               	movlw	0
  2696  0ABC  00F4               	movwf	___lwdiv@divisor+1
  2697  0ABD  084B               	movf	((_EWH_TempSettings+1)^(0+128)+3),w
  2698  0ABE  00F6               	movwf	___lwdiv@dividend+1
  2699  0ABF  084A               	movf	(_EWH_TempSettings^(0+128)+3),w
  2700  0AC0  00F5               	movwf	___lwdiv@dividend
  2701  0AC1  120A  158A  23C1  120A  158A  	fcall	___lwdiv
  2702  0AC6  0873               	movf	?___lwdiv,w
  2703  0AC7  00FF               	movwf	btemp+1
  2704  0AC8  087F               	movf	btemp+1,w
  2705  0AC9  1683               	bsf	3,5	;RP0=1, select bank1
  2706  0ACA  1303               	bcf	3,6	;RP1=0, select bank1
  2707  0ACB  00C7               	movwf	_EWH_TempSettings^(0+128)
  2708  0ACC                     l4365:
  2709                           
  2710                           ;ElectricWaterHeater.c: 94:         EWH_TempSettings. g_curr_waterTemp = 0;
  2711  0ACC  01CA               	clrf	(_EWH_TempSettings^(0+128)+3)
  2712  0ACD  01CB               	clrf	((_EWH_TempSettings+1)^(0+128)+3)
  2713  0ACE                     l4367:
  2714                           
  2715                           ;ElectricWaterHeater.c: 95:         EWH_TempSettings.g_Curr_temp_readings = 0;
  2716  0ACE  01C8               	clrf	(_EWH_TempSettings^(0+128)+1)
  2717  0ACF                     l394:
  2718  0ACF  0008               	return
  2719  0AD0                     __end_of_TempSensing_Task:
  2720                           
  2721                           	psect	text6
  2722  0BC1                     __ptext6:	
  2723 ;; *************** function ___lwdiv *****************
  2724 ;; Defined at:
  2725 ;;		line 5 in file "C:\Program Files\Microchip\xc8\v2.20\pic\sources\c90\common\lwdiv.c"
  2726 ;; Parameters:    Size  Location     Type
  2727 ;;  divisor         2    3[COMMON] unsigned int 
  2728 ;;  dividend        2    5[COMMON] unsigned int 
  2729 ;; Auto vars:     Size  Location     Type
  2730 ;;  quotient        2    1[BANK0 ] unsigned int 
  2731 ;;  counter         1    0[BANK0 ] unsigned char 
  2732 ;; Return value:  Size  Location     Type
  2733 ;;                  2    3[COMMON] unsigned int 
  2734 ;; Registers used:
  2735 ;;		wreg, status,2, status,0, btemp+1
  2736 ;; Tracked objects:
  2737 ;;		On entry : 0/0
  2738 ;;		On exit  : 0/0
  2739 ;;		Unchanged: 0/0
  2740 ;; Data sizes:     COMMON   BANK0   BANK1   BANK3   BANK2
  2741 ;;      Params:         4       0       0       0       0
  2742 ;;      Locals:         0       3       0       0       0
  2743 ;;      Temps:          0       0       0       0       0
  2744 ;;      Totals:         4       3       0       0       0
  2745 ;;Total ram usage:        7 bytes
  2746 ;; Hardware stack levels used:    1
  2747 ;; Hardware stack levels required when called:    2
  2748 ;; This function calls:
  2749 ;;		Nothing
  2750 ;; This function is called by:
  2751 ;;		_TempSensing_Task
  2752 ;; This function uses a non-reentrant model
  2753 ;;
  2754                           
  2755                           
  2756                           ;psect for function ___lwdiv
  2757  0BC1                     ___lwdiv:
  2758  0BC1                     l4297:	
  2759                           ;incstack = 0
  2760                           ; Regs used in ___lwdiv: [wreg+status,2+status,0+btemp+1]
  2761                           
  2762  0BC1  1283               	bcf	3,5	;RP0=0, select bank0
  2763  0BC2  1303               	bcf	3,6	;RP1=0, select bank0
  2764  0BC3  01A1               	clrf	___lwdiv@quotient
  2765  0BC4  01A2               	clrf	___lwdiv@quotient+1
  2766  0BC5                     l4299:
  2767  0BC5  0873               	movf	___lwdiv@divisor,w
  2768  0BC6  0474               	iorwf	___lwdiv@divisor+1,w
  2769  0BC7  1903               	btfsc	3,2
  2770  0BC8  2BCA               	goto	u4671
  2771  0BC9  2BCB               	goto	u4670
  2772  0BCA                     u4671:
  2773  0BCA  2C02               	goto	l4319
  2774  0BCB                     u4670:
  2775  0BCB                     l4301:
  2776  0BCB  01A0               	clrf	___lwdiv@counter
  2777  0BCC  0AA0               	incf	___lwdiv@counter,f
  2778  0BCD  2BD9               	goto	l4307
  2779  0BCE                     l4303:
  2780  0BCE  3001               	movlw	1
  2781  0BCF                     u4685:
  2782  0BCF  1003               	clrc
  2783  0BD0  0DF3               	rlf	___lwdiv@divisor,f
  2784  0BD1  0DF4               	rlf	___lwdiv@divisor+1,f
  2785  0BD2  3EFF               	addlw	-1
  2786  0BD3  1D03               	skipz
  2787  0BD4  2BCF               	goto	u4685
  2788  0BD5                     l4305:
  2789  0BD5  3001               	movlw	1
  2790  0BD6  00FF               	movwf	btemp+1
  2791  0BD7  087F               	movf	btemp+1,w
  2792  0BD8  07A0               	addwf	___lwdiv@counter,f
  2793  0BD9                     l4307:
  2794  0BD9  1FF4               	btfss	___lwdiv@divisor+1,7
  2795  0BDA  2BDC               	goto	u4691
  2796  0BDB  2BDD               	goto	u4690
  2797  0BDC                     u4691:
  2798  0BDC  2BCE               	goto	l4303
  2799  0BDD                     u4690:
  2800  0BDD                     l4309:
  2801  0BDD  3001               	movlw	1
  2802  0BDE                     u4705:
  2803  0BDE  1003               	clrc
  2804  0BDF  0DA1               	rlf	___lwdiv@quotient,f
  2805  0BE0  0DA2               	rlf	___lwdiv@quotient+1,f
  2806  0BE1  3EFF               	addlw	-1
  2807  0BE2  1D03               	skipz
  2808  0BE3  2BDE               	goto	u4705
  2809  0BE4  0874               	movf	___lwdiv@divisor+1,w
  2810  0BE5  0276               	subwf	___lwdiv@dividend+1,w
  2811  0BE6  1D03               	skipz
  2812  0BE7  2BEA               	goto	u4715
  2813  0BE8  0873               	movf	___lwdiv@divisor,w
  2814  0BE9  0275               	subwf	___lwdiv@dividend,w
  2815  0BEA                     u4715:
  2816  0BEA  1C03               	skipc
  2817  0BEB  2BED               	goto	u4711
  2818  0BEC  2BEE               	goto	u4710
  2819  0BED                     u4711:
  2820  0BED  2BF5               	goto	l4315
  2821  0BEE                     u4710:
  2822  0BEE                     l4311:
  2823  0BEE  0873               	movf	___lwdiv@divisor,w
  2824  0BEF  02F5               	subwf	___lwdiv@dividend,f
  2825  0BF0  0874               	movf	___lwdiv@divisor+1,w
  2826  0BF1  1C03               	skipc
  2827  0BF2  03F6               	decf	___lwdiv@dividend+1,f
  2828  0BF3  02F6               	subwf	___lwdiv@dividend+1,f
  2829  0BF4                     l4313:
  2830  0BF4  1421               	bsf	___lwdiv@quotient,0
  2831  0BF5                     l4315:
  2832  0BF5  3001               	movlw	1
  2833  0BF6                     u4725:
  2834  0BF6  1003               	clrc
  2835  0BF7  0CF4               	rrf	___lwdiv@divisor+1,f
  2836  0BF8  0CF3               	rrf	___lwdiv@divisor,f
  2837  0BF9  3EFF               	addlw	-1
  2838  0BFA  1D03               	skipz
  2839  0BFB  2BF6               	goto	u4725
  2840  0BFC                     l4317:
  2841  0BFC  3001               	movlw	1
  2842  0BFD  02A0               	subwf	___lwdiv@counter,f
  2843  0BFE  1D03               	btfss	3,2
  2844  0BFF  2C01               	goto	u4731
  2845  0C00  2C02               	goto	u4730
  2846  0C01                     u4731:
  2847  0C01  2BDD               	goto	l4309
  2848  0C02                     u4730:
  2849  0C02                     l4319:
  2850  0C02  0822               	movf	___lwdiv@quotient+1,w
  2851  0C03  00F4               	movwf	?___lwdiv+1
  2852  0C04  0821               	movf	___lwdiv@quotient,w
  2853  0C05  00F3               	movwf	?___lwdiv
  2854  0C06                     l1011:
  2855  0C06  0008               	return
  2856  0C07                     __end_of___lwdiv:
  2857                           
  2858                           	psect	text7
  2859  0C50                     __ptext7:	
  2860 ;; *************** function _SW_Task *****************
  2861 ;; Defined at:
  2862 ;;		line 52 in file "ElectricWaterHeater.c"
  2863 ;; Parameters:    Size  Location     Type
  2864 ;;		None
  2865 ;; Auto vars:     Size  Location     Type
  2866 ;;		None
  2867 ;; Return value:  Size  Location     Type
  2868 ;;                  1    wreg      void 
  2869 ;; Registers used:
  2870 ;;		wreg, fsr0l, fsr0h, status,2, status,0, btemp+1, pclath, cstack
  2871 ;; Tracked objects:
  2872 ;;		On entry : 0/0
  2873 ;;		On exit  : 0/0
  2874 ;;		Unchanged: 0/0
  2875 ;; Data sizes:     COMMON   BANK0   BANK1   BANK3   BANK2
  2876 ;;      Params:         0       0       0       0       0
  2877 ;;      Locals:         0       0       0       0       0
  2878 ;;      Temps:          0       0       0       0       0
  2879 ;;      Totals:         0       0       0       0       0
  2880 ;;Total ram usage:        0 bytes
  2881 ;; Hardware stack levels used:    1
  2882 ;; Hardware stack levels required when called:    5
  2883 ;; This function calls:
  2884 ;;		_SW_UpdateStates
  2885 ;;		_SW_getState
  2886 ;;		_SW_updateSamples
  2887 ;; This function is called by:
  2888 ;;		_Os_sch
  2889 ;; This function uses a non-reentrant model
  2890 ;;
  2891                           
  2892                           
  2893                           ;psect for function _SW_Task
  2894  0C50                     _SW_Task:
  2895  0C50                     l4341:	
  2896                           ;incstack = 0
  2897                           ; Regs used in _SW_Task: [wreg-fsr0h+status,2+status,0+btemp+1+pclath+cstack]
  2898                           
  2899                           
  2900                           ;ElectricWaterHeater.c: 53:     SW_updateSamples();
  2901  0C50  120A  158A  2021  120A  158A  	fcall	_SW_updateSamples
  2902                           
  2903                           ;ElectricWaterHeater.c: 54:     if (SW_UpdateStates()) {
  2904  0C55  120A  158A  20D0  120A  158A  	fcall	_SW_UpdateStates
  2905  0C5A  3A00               	xorlw	0
  2906  0C5B  1903               	skipnz
  2907  0C5C  2C5E               	goto	u4741
  2908  0C5D  2C5F               	goto	u4740
  2909  0C5E                     u4741:
  2910  0C5E  2C98               	goto	l390
  2911  0C5F                     u4740:
  2912  0C5F                     l4343:
  2913                           
  2914                           ;ElectricWaterHeater.c: 55:         if ((SW_getState((uint8)0x02) == 0x00U)) {
  2915  0C5F  3002               	movlw	2
  2916  0C60  160A  118A  2741  120A  158A  	fcall	_SW_getState
  2917  0C65  3A00               	xorlw	0
  2918  0C66  1D03               	skipz
  2919  0C67  2C69               	goto	u4751
  2920  0C68  2C6A               	goto	u4750
  2921  0C69                     u4751:
  2922  0C69  2C7E               	goto	l4353
  2923  0C6A                     u4750:
  2924  0C6A                     l4345:
  2925                           
  2926                           ;ElectricWaterHeater.c: 59:             if ((g_curr_heater_state == TIME_SETTING_STATE) 
      +                          || (g_curr_heater_state == TEMP_CONTROLLING_STATE)) {
  2927  0C6A  1283               	bcf	3,5	;RP0=0, select bank0
  2928  0C6B  1303               	bcf	3,6	;RP1=0, select bank0
  2929  0C6C  036C               	decf	_g_curr_heater_state,w
  2930  0C6D  1903               	btfsc	3,2
  2931  0C6E  2C70               	goto	u4761
  2932  0C6F  2C71               	goto	u4760
  2933  0C70                     u4761:
  2934  0C70  2C77               	goto	l4349
  2935  0C71                     u4760:
  2936  0C71                     l4347:
  2937  0C71  3002               	movlw	2
  2938  0C72  066C               	xorwf	_g_curr_heater_state,w
  2939  0C73  1D03               	btfss	3,2
  2940  0C74  2C76               	goto	u4771
  2941  0C75  2C77               	goto	u4770
  2942  0C76                     u4771:
  2943  0C76  2C79               	goto	l4351
  2944  0C77                     u4770:
  2945  0C77                     l4349:
  2946                           
  2947                           ;ElectricWaterHeater.c: 60:                 g_curr_heater_state = OFF_STATE;
  2948  0C77  01EC               	clrf	_g_curr_heater_state
  2949                           
  2950                           ;ElectricWaterHeater.c: 61:             } else {
  2951  0C78  2C98               	goto	l390
  2952  0C79                     l4351:
  2953                           
  2954                           ;ElectricWaterHeater.c: 66:                 g_curr_heater_state = TEMP_CONTROLLING_STATE
      +                          ;
  2955  0C79  3002               	movlw	2
  2956  0C7A  00FF               	movwf	btemp+1
  2957  0C7B  087F               	movf	btemp+1,w
  2958  0C7C  00EC               	movwf	_g_curr_heater_state
  2959  0C7D  2C98               	goto	l390
  2960  0C7E                     l4353:
  2961  0C7E  3000               	movlw	0
  2962  0C7F  160A  118A  2741  120A  158A  	fcall	_SW_getState
  2963  0C84  3A00               	xorlw	0
  2964  0C85  1903               	skipnz
  2965  0C86  2C88               	goto	u4781
  2966  0C87  2C89               	goto	u4780
  2967  0C88                     u4781:
  2968  0C88  2C94               	goto	l389
  2969  0C89                     u4780:
  2970  0C89                     l4355:
  2971  0C89  3001               	movlw	1
  2972  0C8A  160A  118A  2741  120A  158A  	fcall	_SW_getState
  2973  0C8F  3A00               	xorlw	0
  2974  0C90  1D03               	skipz
  2975  0C91  2C93               	goto	u4791
  2976  0C92  2C94               	goto	u4790
  2977  0C93                     u4791:
  2978  0C93  2C98               	goto	l390
  2979  0C94                     u4790:
  2980  0C94                     l389:
  2981                           
  2982                           ;ElectricWaterHeater.c: 70:             g_curr_heater_state = TIME_SETTING_STATE;
  2983  0C94  1283               	bcf	3,5	;RP0=0, select bank0
  2984  0C95  1303               	bcf	3,6	;RP1=0, select bank0
  2985  0C96  01EC               	clrf	_g_curr_heater_state
  2986  0C97  0AEC               	incf	_g_curr_heater_state,f
  2987  0C98                     l390:
  2988  0C98  0008               	return
  2989  0C99                     __end_of_SW_Task:
  2990                           
  2991                           	psect	text8
  2992  08D0                     __ptext8:	
  2993 ;; *************** function _SW_UpdateStates *****************
  2994 ;; Defined at:
  2995 ;;		line 48 in file "SW.c"
  2996 ;; Parameters:    Size  Location     Type
  2997 ;;		None
  2998 ;; Auto vars:     Size  Location     Type
  2999 ;;  itr             1    4[COMMON] unsigned char 
  3000 ;;  new_pressed_    1    3[COMMON] unsigned char 
  3001 ;; Return value:  Size  Location     Type
  3002 ;;                  1    wreg      unsigned char 
  3003 ;; Registers used:
  3004 ;;		wreg, fsr0l, fsr0h, status,2, status,0, btemp+1
  3005 ;; Tracked objects:
  3006 ;;		On entry : 0/0
  3007 ;;		On exit  : 0/0
  3008 ;;		Unchanged: 0/0
  3009 ;; Data sizes:     COMMON   BANK0   BANK1   BANK3   BANK2
  3010 ;;      Params:         0       0       0       0       0
  3011 ;;      Locals:         2       0       0       0       0
  3012 ;;      Temps:          0       0       0       0       0
  3013 ;;      Totals:         2       0       0       0       0
  3014 ;;Total ram usage:        2 bytes
  3015 ;; Hardware stack levels used:    1
  3016 ;; Hardware stack levels required when called:    2
  3017 ;; This function calls:
  3018 ;;		Nothing
  3019 ;; This function is called by:
  3020 ;;		_SW_Task
  3021 ;; This function uses a non-reentrant model
  3022 ;;
  3023                           
  3024                           
  3025                           ;psect for function _SW_UpdateStates
  3026  08D0                     _SW_UpdateStates:
  3027  08D0                     l3363:	
  3028                           ;incstack = 0
  3029                           ; Regs used in _SW_UpdateStates: [wreg-fsr0h+status,2+status,0+btemp+1]
  3030                           
  3031                           
  3032                           ;SW.c: 49:     uint8 itr;;SW.c: 50:     uint8 new_pressed_Sw_flag = 0x01U ;
  3033  08D0  01F3               	clrf	SW_UpdateStates@new_pressed_Sw_flag
  3034  08D1  0AF3               	incf	SW_UpdateStates@new_pressed_Sw_flag,f
  3035  08D2                     l3365:
  3036                           
  3037                           ;SW.c: 51:     for (itr = 0; itr < (3U); itr++) {
  3038  08D2  01F4               	clrf	SW_UpdateStates@itr
  3039  08D3                     l3371:
  3040                           
  3041                           ;SW.c: 52:         if(g_sw_states[itr]==0x00U)
  3042  08D3  0874               	movf	SW_UpdateStates@itr,w
  3043  08D4  3EAA               	addlw	(low (_g_sw_states| 0))& (0+255)
  3044  08D5  0084               	movwf	4
  3045  08D6  1383               	bcf	3,7	;select IRP bank1
  3046  08D7  0800               	movf	0,w
  3047  08D8  1D03               	btfss	3,2
  3048  08D9  28DB               	goto	u3591
  3049  08DA  28DC               	goto	u3590
  3050  08DB                     u3591:
  3051  08DB  28DF               	goto	l3375
  3052  08DC                     u3590:
  3053  08DC                     l3373:
  3054                           
  3055                           ;SW.c: 53:         {;SW.c: 54:             new_pressed_Sw_flag =1;
  3056  08DC  01F3               	clrf	SW_UpdateStates@new_pressed_Sw_flag
  3057  08DD  0AF3               	incf	SW_UpdateStates@new_pressed_Sw_flag,f
  3058                           
  3059                           ;SW.c: 55:             break ;
  3060  08DE  28E9               	goto	l3379
  3061  08DF                     l3375:
  3062                           
  3063                           ;SW.c: 57:     }
  3064  08DF  3001               	movlw	1
  3065  08E0  00FF               	movwf	btemp+1
  3066  08E1  087F               	movf	btemp+1,w
  3067  08E2  07F4               	addwf	SW_UpdateStates@itr,f
  3068  08E3                     l3377:
  3069  08E3  3003               	movlw	3
  3070  08E4  0274               	subwf	SW_UpdateStates@itr,w
  3071  08E5  1C03               	skipc
  3072  08E6  28E8               	goto	u3601
  3073  08E7  28E9               	goto	u3600
  3074  08E8                     u3601:
  3075  08E8  28D3               	goto	l3371
  3076  08E9                     u3600:
  3077  08E9                     l3379:
  3078                           
  3079                           ;SW.c: 58:     return new_pressed_Sw_flag ;
  3080  08E9  0873               	movf	SW_UpdateStates@new_pressed_Sw_flag,w
  3081  08EA                     l247:
  3082  08EA  0008               	return
  3083  08EB                     __end_of_SW_UpdateStates:
  3084                           
  3085                           	psect	text9
  3086  0A60                     __ptext9:	
  3087 ;; *************** function _EWH_updateState *****************
  3088 ;; Defined at:
  3089 ;;		line 192 in file "ElectricWaterHeater.c"
  3090 ;; Parameters:    Size  Location     Type
  3091 ;;		None
  3092 ;; Auto vars:     Size  Location     Type
  3093 ;;		None
  3094 ;; Return value:  Size  Location     Type
  3095 ;;                  1    wreg      void 
  3096 ;; Registers used:
  3097 ;;		wreg, fsr0l, fsr0h, status,2, status,0, btemp+1, pclath, cstack
  3098 ;; Tracked objects:
  3099 ;;		On entry : 0/0
  3100 ;;		On exit  : 0/0
  3101 ;;		Unchanged: 0/0
  3102 ;; Data sizes:     COMMON   BANK0   BANK1   BANK3   BANK2
  3103 ;;      Params:         0       0       0       0       0
  3104 ;;      Locals:         0       0       0       0       0
  3105 ;;      Temps:          0       2       0       0       0
  3106 ;;      Totals:         0       2       0       0       0
  3107 ;;Total ram usage:        2 bytes
  3108 ;; Hardware stack levels used:    1
  3109 ;; Hardware stack levels required when called:    6
  3110 ;; This function calls:
  3111 ;;		_Fan_Off
  3112 ;;		_Heater_Off
  3113 ;;		_TempControl_State
  3114 ;;		_TempSetting_State
  3115 ;; This function is called by:
  3116 ;;		_Os_sch
  3117 ;; This function uses a non-reentrant model
  3118 ;;
  3119                           
  3120                           
  3121                           ;psect for function _EWH_updateState
  3122  0A60                     _EWH_updateState:
  3123  0A60                     l4379:	
  3124                           ;incstack = 0
  3125 ;; hardware stack exceeded
  3126                           ; Regs used in _EWH_updateState: [wreg-fsr0h+status,2+status,0+btemp+1+pclath+cstack]
  3127                           
  3128                           
  3129                           ;ElectricWaterHeater.c: 193:     switch (g_curr_heater_state) {
  3130  0A60  2A82               	goto	l4389
  3131  0A61                     l4381:
  3132                           
  3133                           ;ElectricWaterHeater.c: 195:             Fan_Off();
  3134  0A61  160A  118A  2748  120A  158A  	fcall	_Fan_Off
  3135                           
  3136                           ;ElectricWaterHeater.c: 196:             Heater_Off();
  3137  0A66  160A  118A  2750  120A  158A  	fcall	_Heater_Off
  3138                           
  3139                           ;ElectricWaterHeater.c: 197:             break;
  3140  0A6B  2A97               	goto	l427
  3141  0A6C                     l4383:
  3142                           
  3143                           ;ElectricWaterHeater.c: 199:             Fan_Off();
  3144  0A6C  160A  118A  2748  120A  158A  	fcall	_Fan_Off
  3145                           
  3146                           ;ElectricWaterHeater.c: 200:             Heater_Off();
  3147  0A71  160A  118A  2750  120A  158A  	fcall	_Heater_Off
  3148                           
  3149                           ;ElectricWaterHeater.c: 202:             TempSetting_State();
  3150  0A76  120A  158A  2309  120A  158A  	fcall	_TempSetting_State
  3151                           
  3152                           ;ElectricWaterHeater.c: 203:             break;
  3153  0A7B  2A97               	goto	l427
  3154  0A7C                     l4385:
  3155                           
  3156                           ;ElectricWaterHeater.c: 205:             TempControl_State();
  3157  0A7C  120A  158A  2407  120A  158A  	fcall	_TempControl_State
  3158                           
  3159                           ;ElectricWaterHeater.c: 206:             break;
  3160  0A81  2A97               	goto	l427
  3161  0A82                     l4389:
  3162  0A82  1283               	bcf	3,5	;RP0=0, select bank0
  3163  0A83  1303               	bcf	3,6	;RP1=0, select bank0
  3164  0A84  086C               	movf	_g_curr_heater_state,w
  3165  0A85  00AB               	movwf	??_EWH_updateState
  3166  0A86  01AC               	clrf	??_EWH_updateState+1
  3167                           
  3168                           ; Switch on 2 bytes has been partitioned into a top level switch of size 1, and 1 sub-sw
      +                          itches
  3169                           ; Switch size 1, requested type "simple"
  3170                           ; Number of cases is 1, Range of values is 0 to 0
  3171                           ; switch strategies available:
  3172                           ; Name         Instructions Cycles
  3173                           ; simple_byte            4     3 (average)
  3174                           ; direct_byte           11     8 (fixed)
  3175                           ; jumptable            260     6 (fixed)
  3176                           ;	Chosen strategy is simple_byte
  3177  0A87  082C               	movf	??_EWH_updateState+1,w
  3178  0A88  3A00               	xorlw	0	; case 0
  3179  0A89  1903               	skipnz
  3180  0A8A  2A8C               	goto	l4667
  3181  0A8B  2A97               	goto	l427
  3182  0A8C                     l4667:
  3183                           
  3184                           ; Switch size 1, requested type "simple"
  3185                           ; Number of cases is 3, Range of values is 0 to 2
  3186                           ; switch strategies available:
  3187                           ; Name         Instructions Cycles
  3188                           ; simple_byte           10     6 (average)
  3189                           ; direct_byte           17     8 (fixed)
  3190                           ; jumptable            260     6 (fixed)
  3191                           ;	Chosen strategy is simple_byte
  3192  0A8C  082B               	movf	??_EWH_updateState,w
  3193  0A8D  3A00               	xorlw	0	; case 0
  3194  0A8E  1903               	skipnz
  3195  0A8F  2A61               	goto	l4381
  3196  0A90  3A01               	xorlw	1	; case 1
  3197  0A91  1903               	skipnz
  3198  0A92  2A6C               	goto	l4383
  3199  0A93  3A03               	xorlw	3	; case 2
  3200  0A94  1903               	skipnz
  3201  0A95  2A7C               	goto	l4385
  3202  0A96  2A97               	goto	l427
  3203  0A97                     l427:
  3204  0A97  0008               	return
  3205  0A98                     __end_of_EWH_updateState:
  3206                           
  3207                           	psect	text10
  3208  0B09                     __ptext10:	
  3209 ;; *************** function _TempSetting_State *****************
  3210 ;; Defined at:
  3211 ;;		line 161 in file "ElectricWaterHeater.c"
  3212 ;; Parameters:    Size  Location     Type
  3213 ;;		None
  3214 ;; Auto vars:     Size  Location     Type
  3215 ;;		None
  3216 ;; Return value:  Size  Location     Type
  3217 ;;                  1    wreg      void 
  3218 ;; Registers used:
  3219 ;;		wreg, fsr0l, fsr0h, status,2, status,0, btemp+1, pclath, cstack
  3220 ;; Tracked objects:
  3221 ;;		On entry : 0/0
  3222 ;;		On exit  : 0/0
  3223 ;;		Unchanged: 0/0
  3224 ;; Data sizes:     COMMON   BANK0   BANK1   BANK3   BANK2
  3225 ;;      Params:         0       0       0       0       0
  3226 ;;      Locals:         0       0       0       0       0
  3227 ;;      Temps:          0       0       0       0       0
  3228 ;;      Totals:         0       0       0       0       0
  3229 ;;Total ram usage:        0 bytes
  3230 ;; Hardware stack levels used:    1
  3231 ;; Hardware stack levels required when called:    5
  3232 ;; This function calls:
  3233 ;;		_SW_getState
  3234 ;;		_SW_updateSamples
  3235 ;; This function is called by:
  3236 ;;		_EWH_updateState
  3237 ;; This function uses a non-reentrant model
  3238 ;;
  3239                           
  3240                           
  3241                           ;psect for function _TempSetting_State
  3242  0B09                     _TempSetting_State:
  3243  0B09                     l4279:	
  3244                           ;incstack = 0
  3245 ;; hardware stack exceeded
  3246                           ; Regs used in _TempSetting_State: [wreg-fsr0h+status,2+status,0+btemp+1+pclath+cstack]
  3247                           
  3248                           
  3249                           ;ElectricWaterHeater.c: 162:     SW_updateSamples();
  3250  0B09  120A  158A  2021  120A  158A  	fcall	_SW_updateSamples
  3251  0B0E                     l4281:
  3252                           
  3253                           ;ElectricWaterHeater.c: 166:     if (SW_getState((uint8)0x00) == 0x00U) {
  3254  0B0E  3000               	movlw	0
  3255  0B0F  160A  118A  2741  120A  158A  	fcall	_SW_getState
  3256  0B14  3A00               	xorlw	0
  3257  0B15  1D03               	skipz
  3258  0B16  2B18               	goto	u4631
  3259  0B17  2B19               	goto	u4630
  3260  0B18                     u4631:
  3261  0B18  2B28               	goto	l4289
  3262  0B19                     u4630:
  3263  0B19                     l4283:
  3264                           
  3265                           ;ElectricWaterHeater.c: 168:         if (EWH_TempSettings.g_required_Temp < 75) {
  3266  0B19  304B               	movlw	75
  3267  0B1A  1683               	bsf	3,5	;RP0=1, select bank1
  3268  0B1B  1303               	bcf	3,6	;RP1=0, select bank1
  3269  0B1C  0249               	subwf	(_EWH_TempSettings^(0+128)+2),w
  3270  0B1D  1803               	skipnc
  3271  0B1E  2B20               	goto	u4641
  3272  0B1F  2B21               	goto	u4640
  3273  0B20                     u4641:
  3274  0B20  2B42               	goto	l419
  3275  0B21                     u4640:
  3276  0B21                     l4285:
  3277                           
  3278                           ;ElectricWaterHeater.c: 169:             EWH_TempSettings.g_required_Temp = EWH_TempSett
      +                          ings.g_required_Temp + 5;
  3279  0B21  0849               	movf	(_EWH_TempSettings^(0+128)+2),w
  3280  0B22  3E05               	addlw	5
  3281  0B23  00FF               	movwf	btemp+1
  3282  0B24  087F               	movf	btemp+1,w
  3283  0B25  00C9               	movwf	(_EWH_TempSettings^(0+128)+2)
  3284  0B26                     l4287:
  3285                           
  3286                           ;ElectricWaterHeater.c: 170:             EWH_SysFlags.SW_pressed_flag = 1;
  3287  0B26  1478               	bsf	_EWH_SysFlags,0
  3288  0B27  2B42               	goto	l419
  3289  0B28                     l4289:
  3290  0B28  3001               	movlw	1
  3291  0B29  160A  118A  2741  120A  158A  	fcall	_SW_getState
  3292  0B2E  3A00               	xorlw	0
  3293  0B2F  1D03               	skipz
  3294  0B30  2B32               	goto	u4651
  3295  0B31  2B33               	goto	u4650
  3296  0B32                     u4651:
  3297  0B32  2B41               	goto	l416
  3298  0B33                     u4650:
  3299  0B33                     l4291:
  3300                           
  3301                           ;ElectricWaterHeater.c: 176:         if (EWH_TempSettings.g_required_Temp > 35) {
  3302  0B33  3024               	movlw	36
  3303  0B34  1683               	bsf	3,5	;RP0=1, select bank1
  3304  0B35  1303               	bcf	3,6	;RP1=0, select bank1
  3305  0B36  0249               	subwf	(_EWH_TempSettings^(0+128)+2),w
  3306  0B37  1C03               	skipc
  3307  0B38  2B3A               	goto	u4661
  3308  0B39  2B3B               	goto	u4660
  3309  0B3A                     u4661:
  3310  0B3A  2B42               	goto	l419
  3311  0B3B                     u4660:
  3312  0B3B                     l4293:
  3313                           
  3314                           ;ElectricWaterHeater.c: 177:             EWH_TempSettings.g_required_Temp = EWH_TempSett
      +                          ings.g_required_Temp - 5;
  3315  0B3B  0849               	movf	(_EWH_TempSettings^(0+128)+2),w
  3316  0B3C  3EFB               	addlw	251
  3317  0B3D  00FF               	movwf	btemp+1
  3318  0B3E  087F               	movf	btemp+1,w
  3319  0B3F  00C9               	movwf	(_EWH_TempSettings^(0+128)+2)
  3320  0B40  2B26               	goto	l4287
  3321  0B41                     l416:
  3322                           
  3323                           ;ElectricWaterHeater.c: 182:         EWH_SysFlags.SW_pressed_flag = 0;
  3324  0B41  1078               	bcf	_EWH_SysFlags,0
  3325  0B42                     l419:
  3326  0B42  0008               	return
  3327  0B43                     __end_of_TempSetting_State:
  3328                           
  3329                           	psect	text11
  3330  0821                     __ptext11:	
  3331 ;; *************** function _SW_updateSamples *****************
  3332 ;; Defined at:
  3333 ;;		line 64 in file "SW.c"
  3334 ;; Parameters:    Size  Location     Type
  3335 ;;		None
  3336 ;; Auto vars:     Size  Location     Type
  3337 ;;		None
  3338 ;; Return value:  Size  Location     Type
  3339 ;;                  1    wreg      void 
  3340 ;; Registers used:
  3341 ;;		wreg, fsr0l, fsr0h, status,2, status,0, btemp+1, pclath, cstack
  3342 ;; Tracked objects:
  3343 ;;		On entry : 0/0
  3344 ;;		On exit  : 0/0
  3345 ;;		Unchanged: 0/0
  3346 ;; Data sizes:     COMMON   BANK0   BANK1   BANK3   BANK2
  3347 ;;      Params:         0       0       0       0       0
  3348 ;;      Locals:         0       0       0       0       0
  3349 ;;      Temps:          0       0       0       0       0
  3350 ;;      Totals:         0       0       0       0       0
  3351 ;;Total ram usage:        0 bytes
  3352 ;; Hardware stack levels used:    1
  3353 ;; Hardware stack levels required when called:    4
  3354 ;; This function calls:
  3355 ;;		_SW_updateState
  3356 ;; This function is called by:
  3357 ;;		_SW_Task
  3358 ;;		_TempSetting_State
  3359 ;; This function uses a non-reentrant model
  3360 ;;
  3361                           
  3362                           
  3363                           ;psect for function _SW_updateSamples
  3364  0821                     _SW_updateSamples:
  3365  0821                     l4183:	
  3366                           ;incstack = 0
  3367                           ; Regs used in _SW_updateSamples: [wreg-fsr0h+status,2+status,0+btemp+1+pclath+cstack]
  3368                           
  3369                           
  3370                           ;SW.c: 65:     SW_updateState((uint8)0x01);
  3371  0821  3001               	movlw	1
  3372  0822  120A  158A  2380  120A  158A  	fcall	_SW_updateState
  3373                           
  3374                           ;SW.c: 66:     SW_updateState((uint8)0x00);
  3375  0827  3000               	movlw	0
  3376  0828  120A  158A  2380  120A  158A  	fcall	_SW_updateState
  3377                           
  3378                           ;SW.c: 67:     SW_updateState((uint8)0x02);
  3379  082D  3002               	movlw	2
  3380  082E  120A  158A  2380  120A  158A  	fcall	_SW_updateState
  3381  0833                     l253:
  3382  0833  0008               	return
  3383  0834                     __end_of_SW_updateSamples:
  3384                           
  3385                           	psect	text12
  3386  0B80                     __ptext12:	
  3387 ;; *************** function _SW_updateState *****************
  3388 ;; Defined at:
  3389 ;;		line 32 in file "SW.c"
  3390 ;; Parameters:    Size  Location     Type
  3391 ;;  sw_index        1    wreg     unsigned char 
  3392 ;; Auto vars:     Size  Location     Type
  3393 ;;  sw_index        1   10[BANK0 ] unsigned char 
  3394 ;;  sw_state        1    9[BANK0 ] unsigned char 
  3395 ;;  dummydelay      1    0        unsigned char 
  3396 ;; Return value:  Size  Location     Type
  3397 ;;                  1    wreg      void 
  3398 ;; Registers used:
  3399 ;;		wreg, fsr0l, fsr0h, status,2, status,0, btemp+1, pclath, cstack
  3400 ;; Tracked objects:
  3401 ;;		On entry : 0/0
  3402 ;;		On exit  : 0/0
  3403 ;;		Unchanged: 0/0
  3404 ;; Data sizes:     COMMON   BANK0   BANK1   BANK3   BANK2
  3405 ;;      Params:         0       0       0       0       0
  3406 ;;      Locals:         0       3       0       0       0
  3407 ;;      Temps:          0       3       0       0       0
  3408 ;;      Totals:         0       6       0       0       0
  3409 ;;Total ram usage:        6 bytes
  3410 ;; Hardware stack levels used:    1
  3411 ;; Hardware stack levels required when called:    3
  3412 ;; This function calls:
  3413 ;;		_Dio_ReadChannel
  3414 ;; This function is called by:
  3415 ;;		_SW_updateSamples
  3416 ;; This function uses a non-reentrant model
  3417 ;;
  3418                           
  3419                           
  3420                           ;psect for function _SW_updateState
  3421  0B80                     _SW_updateState:
  3422                           
  3423                           ;incstack = 0
  3424                           ; Regs used in _SW_updateState: [wreg-fsr0h+status,2+status,0+btemp+1+pclath+cstack]
  3425                           ;SW_updateState@sw_index stored from wreg
  3426  0B80  1283               	bcf	3,5	;RP0=0, select bank0
  3427  0B81  1303               	bcf	3,6	;RP1=0, select bank0
  3428  0B82  00AA               	movwf	SW_updateState@sw_index
  3429  0B83                     l4043:
  3430                           
  3431                           ;SW.c: 33:  uint8 sw_state = Dio_ReadChannel(sw_index);
  3432  0B83  082A               	movf	SW_updateState@sw_index,w
  3433  0B84  120A  158A  271A  120A  158A  	fcall	_Dio_ReadChannel
  3434  0B89  00FF               	movwf	btemp+1
  3435  0B8A  087F               	movf	btemp+1,w
  3436  0B8B  1283               	bcf	3,5	;RP0=0, select bank0
  3437  0B8C  1303               	bcf	3,6	;RP1=0, select bank0
  3438  0B8D  00A9               	movwf	SW_updateState@sw_state
  3439  0B8E                     l4045:
  3440                           
  3441                           ;SW.c: 34:  uint8 dummydelay;;SW.c: 35:  if (0x00U == sw_state) {
  3442  0B8E  0829               	movf	SW_updateState@sw_state,w
  3443  0B8F  1D03               	btfss	3,2
  3444  0B90  2B92               	goto	u4191
  3445  0B91  2B93               	goto	u4190
  3446  0B92                     u4191:
  3447  0B92  2BBA               	goto	l4057
  3448  0B93                     u4190:
  3449  0B93                     l4047:
  3450  0B93                     l4049:
  3451                           
  3452                           ;SW.c: 37:         _delay((unsigned long)((100)*(8000000/4000.0)));
  3453  0B93  3002               	movlw	2
  3454  0B94  1283               	bcf	3,5	;RP0=0, select bank0
  3455  0B95  1303               	bcf	3,6	;RP1=0, select bank0
  3456  0B96  00A7               	movwf	??_SW_updateState+2
  3457  0B97  3004               	movlw	4
  3458  0B98  00A6               	movwf	??_SW_updateState+1
  3459  0B99  30B9               	movlw	185
  3460  0B9A  00A5               	movwf	??_SW_updateState
  3461  0B9B                     u4877:
  3462  0B9B  0BA5               	decfsz	??_SW_updateState,f
  3463  0B9C  2B9B               	goto	u4877
  3464  0B9D  0BA6               	decfsz	??_SW_updateState+1,f
  3465  0B9E  2B9B               	goto	u4877
  3466  0B9F  0BA7               	decfsz	??_SW_updateState+2,f
  3467  0BA0  2B9B               	goto	u4877
  3468  0BA1  2BA2               	nop2
  3469  0BA2                     l4051:
  3470                           
  3471                           ;SW.c: 38:   sw_state = Dio_ReadChannel(sw_index);
  3472  0BA2  1283               	bcf	3,5	;RP0=0, select bank0
  3473  0BA3  1303               	bcf	3,6	;RP1=0, select bank0
  3474  0BA4  082A               	movf	SW_updateState@sw_index,w
  3475  0BA5  120A  158A  271A  120A  158A  	fcall	_Dio_ReadChannel
  3476  0BAA  00FF               	movwf	btemp+1
  3477  0BAB  087F               	movf	btemp+1,w
  3478  0BAC  1283               	bcf	3,5	;RP0=0, select bank0
  3479  0BAD  1303               	bcf	3,6	;RP1=0, select bank0
  3480  0BAE  00A9               	movwf	SW_updateState@sw_state
  3481  0BAF                     l4053:
  3482                           
  3483                           ;SW.c: 39:   if (0x00U == sw_state) {
  3484  0BAF  0829               	movf	SW_updateState@sw_state,w
  3485  0BB0  1D03               	btfss	3,2
  3486  0BB1  2BB3               	goto	u4201
  3487  0BB2  2BB4               	goto	u4200
  3488  0BB3                     u4201:
  3489  0BB3  2BBA               	goto	l4057
  3490  0BB4                     u4200:
  3491  0BB4                     l4055:
  3492                           
  3493                           ;SW.c: 40:    g_sw_states[sw_index] = 0x00U;
  3494  0BB4  082A               	movf	SW_updateState@sw_index,w
  3495  0BB5  3EAA               	addlw	(low (_g_sw_states| 0))& (0+255)
  3496  0BB6  0084               	movwf	4
  3497  0BB7  1383               	bcf	3,7	;select IRP bank1
  3498  0BB8  0180               	clrf	0
  3499                           
  3500                           ;SW.c: 41:   } else {
  3501  0BB9  2BC0               	goto	l241
  3502  0BBA                     l4057:
  3503                           
  3504                           ;SW.c: 42:    g_sw_states[sw_index] = 0x01U;
  3505  0BBA  082A               	movf	SW_updateState@sw_index,w
  3506  0BBB  3EAA               	addlw	(low (_g_sw_states| 0))& (0+255)
  3507  0BBC  0084               	movwf	4
  3508  0BBD  1383               	bcf	3,7	;select IRP bank1
  3509  0BBE  0180               	clrf	0
  3510  0BBF  0A80               	incf	0,f
  3511  0BC0                     l241:
  3512  0BC0  0008               	return
  3513  0BC1                     __end_of_SW_updateState:
  3514                           
  3515                           	psect	text13
  3516  0F1A                     __ptext13:	
  3517 ;; *************** function _Dio_ReadChannel *****************
  3518 ;; Defined at:
  3519 ;;		line 202 in file "DIO.c"
  3520 ;; Parameters:    Size  Location     Type
  3521 ;;  ChannelId       1    wreg     unsigned char 
  3522 ;; Auto vars:     Size  Location     Type
  3523 ;;  ChannelId       1    4[BANK0 ] unsigned char 
  3524 ;;  pin_ptr         2    2[BANK0 ] PTR volatile unsigned ch
  3525 ;;		 -> PORTE(1), PORTD(1), PORTC(1), PORTB(1), 
  3526 ;;		 -> PORTA(1), NULL(0), 
  3527 ;;  error           1    1[BANK0 ] unsigned char 
  3528 ;;  ChannelLevel    1    0[BANK0 ] unsigned char 
  3529 ;; Return value:  Size  Location     Type
  3530 ;;                  1    wreg      unsigned char 
  3531 ;; Registers used:
  3532 ;;		wreg, fsr0l, fsr0h, status,2, status,0, btemp+1
  3533 ;; Tracked objects:
  3534 ;;		On entry : 0/0
  3535 ;;		On exit  : 0/0
  3536 ;;		Unchanged: 0/0
  3537 ;; Data sizes:     COMMON   BANK0   BANK1   BANK3   BANK2
  3538 ;;      Params:         0       0       0       0       0
  3539 ;;      Locals:         0       5       0       0       0
  3540 ;;      Temps:          4       0       0       0       0
  3541 ;;      Totals:         4       5       0       0       0
  3542 ;;Total ram usage:        9 bytes
  3543 ;; Hardware stack levels used:    1
  3544 ;; Hardware stack levels required when called:    2
  3545 ;; This function calls:
  3546 ;;		Nothing
  3547 ;; This function is called by:
  3548 ;;		_SW_updateState
  3549 ;; This function uses a non-reentrant model
  3550 ;;
  3551                           
  3552                           
  3553                           ;psect for function _Dio_ReadChannel
  3554  0F1A                     _Dio_ReadChannel:
  3555                           
  3556                           ;incstack = 0
  3557                           ; Regs used in _Dio_ReadChannel: [wreg-fsr0h+status,2+status,0+btemp+1]
  3558                           ;Dio_ReadChannel@ChannelId stored from wreg
  3559  0F1A  1283               	bcf	3,5	;RP0=0, select bank0
  3560  0F1B  1303               	bcf	3,6	;RP1=0, select bank0
  3561  0F1C  00A4               	movwf	Dio_ReadChannel@ChannelId
  3562  0F1D                     l2625:
  3563                           
  3564                           ;DIO.c: 202: Dio_LevelType Dio_ReadChannel(Dio_ChannelType ChannelId);DIO.c: 203: {;DIO.
      +                          c: 204: volatile uint8 *pin_ptr = ((void *)0);
  3565  0F1D  01A2               	clrf	Dio_ReadChannel@pin_ptr
  3566  0F1E  01A3               	clrf	Dio_ReadChannel@pin_ptr+1
  3567                           
  3568                           ;DIO.c: 205:  Dio_LevelType ChannelLevel;;DIO.c: 206:  boolean error = 0x00U;
  3569  0F1F  01A1               	clrf	Dio_ReadChannel@error
  3570  0F20                     l2627:
  3571                           
  3572                           ;DIO.c: 208:  if ((0U) == Dio_status)
  3573  0F20  086F               	movf	_Dio_status,w
  3574  0F21  1D03               	btfss	3,2
  3575  0F22  2F24               	goto	u2101
  3576  0F23  2F25               	goto	u2100
  3577  0F24                     u2101:
  3578  0F24  2F27               	goto	l2631
  3579  0F25                     u2100:
  3580  0F25                     l2629:
  3581                           
  3582                           ;DIO.c: 209:  {;DIO.c: 211:   error = 0x01U;
  3583  0F25  01A1               	clrf	Dio_ReadChannel@error
  3584  0F26  0AA1               	incf	Dio_ReadChannel@error,f
  3585  0F27                     l2631:	
  3586                           ;DIO.c: 212:  }
  3587                           
  3588                           
  3589                           ;DIO.c: 217:  if ((8U) <= ChannelId)
  3590  0F27  3008               	movlw	8
  3591  0F28  0224               	subwf	Dio_ReadChannel@ChannelId,w
  3592  0F29  1C03               	skipc
  3593  0F2A  2F2C               	goto	u2111
  3594  0F2B  2F2D               	goto	u2110
  3595  0F2C                     u2111:
  3596  0F2C  2F2F               	goto	l2635
  3597  0F2D                     u2110:
  3598  0F2D                     l2633:
  3599                           
  3600                           ;DIO.c: 218:  {;DIO.c: 220:   error = 0x01U;
  3601  0F2D  01A1               	clrf	Dio_ReadChannel@error
  3602  0F2E  0AA1               	incf	Dio_ReadChannel@error,f
  3603  0F2F                     l2635:	
  3604                           ;DIO.c: 221:  }
  3605                           
  3606                           
  3607                           ;DIO.c: 227:  if (0x00U == error) {
  3608  0F2F  0821               	movf	Dio_ReadChannel@error,w
  3609  0F30  1D03               	btfss	3,2
  3610  0F31  2F33               	goto	u2121
  3611  0F32  2F34               	goto	u2120
  3612  0F33                     u2121:
  3613  0F33  2F8A               	goto	l2645
  3614  0F34                     u2120:
  3615  0F34  2F4E               	goto	l2641
  3616  0F35                     l113:	
  3617                           ;DIO.c: 230:   case 0: pin_ptr = &PORTA ;
  3618                           
  3619  0F35  3000               	movlw	0
  3620  0F36  00A3               	movwf	Dio_ReadChannel@pin_ptr+1
  3621  0F37  3005               	movlw	5
  3622  0F38  00A2               	movwf	Dio_ReadChannel@pin_ptr
  3623                           
  3624                           ;DIO.c: 231:   break ;
  3625  0F39  2F6F               	goto	l2643
  3626  0F3A                     l115:	
  3627                           ;DIO.c: 232:   case 1: pin_ptr = &PORTB ;
  3628                           
  3629  0F3A  3000               	movlw	0
  3630  0F3B  00A3               	movwf	Dio_ReadChannel@pin_ptr+1
  3631  0F3C  3006               	movlw	6
  3632  0F3D  00A2               	movwf	Dio_ReadChannel@pin_ptr
  3633                           
  3634                           ;DIO.c: 233:   break;
  3635  0F3E  2F6F               	goto	l2643
  3636  0F3F                     l116:	
  3637                           ;DIO.c: 234:   case 2: pin_ptr = &PORTC;
  3638                           
  3639  0F3F  3000               	movlw	0
  3640  0F40  00A3               	movwf	Dio_ReadChannel@pin_ptr+1
  3641  0F41  3007               	movlw	7
  3642  0F42  00A2               	movwf	Dio_ReadChannel@pin_ptr
  3643                           
  3644                           ;DIO.c: 235:   break ;
  3645  0F43  2F6F               	goto	l2643
  3646  0F44                     l117:	
  3647                           ;DIO.c: 236:   case 3: pin_ptr = &PORTD;
  3648                           
  3649  0F44  3000               	movlw	0
  3650  0F45  00A3               	movwf	Dio_ReadChannel@pin_ptr+1
  3651  0F46  3008               	movlw	8
  3652  0F47  00A2               	movwf	Dio_ReadChannel@pin_ptr
  3653                           
  3654                           ;DIO.c: 237:   break ;
  3655  0F48  2F6F               	goto	l2643
  3656  0F49                     l118:	
  3657                           ;DIO.c: 238:         case 4: pin_ptr = &PORTE;
  3658                           
  3659  0F49  3000               	movlw	0
  3660  0F4A  00A3               	movwf	Dio_ReadChannel@pin_ptr+1
  3661  0F4B  3009               	movlw	9
  3662  0F4C  00A2               	movwf	Dio_ReadChannel@pin_ptr
  3663                           
  3664                           ;DIO.c: 239:   break ;
  3665  0F4D  2F6F               	goto	l2643
  3666  0F4E                     l2641:
  3667  0F4E  0824               	movf	Dio_ReadChannel@ChannelId,w
  3668  0F4F  00F3               	movwf	??_Dio_ReadChannel
  3669  0F50  0773               	addwf	??_Dio_ReadChannel,w
  3670  0F51  0779               	addwf	_Dio_configuredChannels,w
  3671  0F52  00F4               	movwf	??_Dio_ReadChannel+1
  3672  0F53  0874               	movf	??_Dio_ReadChannel+1,w
  3673  0F54  0084               	movwf	4
  3674  0F55  1383               	bcf	3,7	;select IRP bank0
  3675  0F56  0800               	movf	0,w
  3676  0F57  00F5               	movwf	??_Dio_ReadChannel+2
  3677  0F58  01F6               	clrf	??_Dio_ReadChannel+3
  3678                           
  3679                           ; Switch on 2 bytes has been partitioned into a top level switch of size 1, and 1 sub-sw
      +                          itches
  3680                           ; Switch size 1, requested type "simple"
  3681                           ; Number of cases is 1, Range of values is 0 to 0
  3682                           ; switch strategies available:
  3683                           ; Name         Instructions Cycles
  3684                           ; simple_byte            4     3 (average)
  3685                           ; direct_byte           11     8 (fixed)
  3686                           ; jumptable            260     6 (fixed)
  3687                           ;	Chosen strategy is simple_byte
  3688  0F59  0876               	movf	??_Dio_ReadChannel+3,w
  3689  0F5A  3A00               	xorlw	0	; case 0
  3690  0F5B  1903               	skipnz
  3691  0F5C  2F5E               	goto	l4669
  3692  0F5D  2F6F               	goto	l2643
  3693  0F5E                     l4669:
  3694                           
  3695                           ; Switch size 1, requested type "simple"
  3696                           ; Number of cases is 5, Range of values is 0 to 4
  3697                           ; switch strategies available:
  3698                           ; Name         Instructions Cycles
  3699                           ; simple_byte           16     9 (average)
  3700                           ; direct_byte           23     8 (fixed)
  3701                           ; jumptable            260     6 (fixed)
  3702                           ;	Chosen strategy is simple_byte
  3703  0F5E  0875               	movf	??_Dio_ReadChannel+2,w
  3704  0F5F  3A00               	xorlw	0	; case 0
  3705  0F60  1903               	skipnz
  3706  0F61  2F35               	goto	l113
  3707  0F62  3A01               	xorlw	1	; case 1
  3708  0F63  1903               	skipnz
  3709  0F64  2F3A               	goto	l115
  3710  0F65  3A03               	xorlw	3	; case 2
  3711  0F66  1903               	skipnz
  3712  0F67  2F3F               	goto	l116
  3713  0F68  3A01               	xorlw	1	; case 3
  3714  0F69  1903               	skipnz
  3715  0F6A  2F44               	goto	l117
  3716  0F6B  3A07               	xorlw	7	; case 4
  3717  0F6C  1903               	skipnz
  3718  0F6D  2F49               	goto	l118
  3719  0F6E  2F6F               	goto	l2643
  3720  0F6F                     l2643:
  3721                           
  3722                           ;DIO.c: 241:   ChannelLevel = ((*pin_ptr>>Dio_configuredChannels[ChannelId].channel_numb
      +                          er) & 0X01);
  3723  0F6F  0822               	movf	Dio_ReadChannel@pin_ptr,w
  3724  0F70  0084               	movwf	4
  3725  0F71  1783               	bsf	3,7
  3726  0F72  1C23               	btfss	Dio_ReadChannel@pin_ptr+1,0
  3727  0F73  1383               	bcf	3,7
  3728  0F74  0800               	movf	0,w
  3729  0F75  00F3               	movwf	??_Dio_ReadChannel
  3730  0F76  0824               	movf	Dio_ReadChannel@ChannelId,w
  3731  0F77  00F4               	movwf	??_Dio_ReadChannel+1
  3732  0F78  0774               	addwf	??_Dio_ReadChannel+1,w
  3733  0F79  0779               	addwf	_Dio_configuredChannels,w
  3734  0F7A  00F5               	movwf	??_Dio_ReadChannel+2
  3735  0F7B  0A75               	incf	??_Dio_ReadChannel+2,w
  3736  0F7C  0084               	movwf	4
  3737  0F7D  1383               	bcf	3,7	;select IRP bank0
  3738  0F7E  0A00               	incf	0,w
  3739  0F7F  2F82               	goto	u2134
  3740  0F80                     u2135:
  3741  0F80  1003               	clrc
  3742  0F81  0CF3               	rrf	??_Dio_ReadChannel,f
  3743  0F82                     u2134:
  3744  0F82  3EFF               	addlw	-1
  3745  0F83  1D03               	skipz
  3746  0F84  2F80               	goto	u2135
  3747  0F85  0873               	movf	??_Dio_ReadChannel,w
  3748  0F86  3901               	andlw	1
  3749  0F87  00FF               	movwf	btemp+1
  3750  0F88  087F               	movf	btemp+1,w
  3751  0F89  00A0               	movwf	Dio_ReadChannel@ChannelLevel
  3752  0F8A                     l2645:	
  3753                           ;DIO.c: 243:  }
  3754                           
  3755                           
  3756                           ;DIO.c: 247:     return ChannelLevel;
  3757  0F8A  0820               	movf	Dio_ReadChannel@ChannelLevel,w
  3758  0F8B                     l120:
  3759  0F8B  0008               	return
  3760  0F8C                     __end_of_Dio_ReadChannel:
  3761                           
  3762                           	psect	text14
  3763  1741                     __ptext14:	
  3764 ;; *************** function _SW_getState *****************
  3765 ;; Defined at:
  3766 ;;		line 61 in file "SW.c"
  3767 ;; Parameters:    Size  Location     Type
  3768 ;;  sw_index        1    wreg     unsigned char 
  3769 ;; Auto vars:     Size  Location     Type
  3770 ;;  sw_index        1    3[COMMON] unsigned char 
  3771 ;; Return value:  Size  Location     Type
  3772 ;;                  1    wreg      unsigned char 
  3773 ;; Registers used:
  3774 ;;		wreg, fsr0l, fsr0h, status,2, status,0
  3775 ;; Tracked objects:
  3776 ;;		On entry : 0/0
  3777 ;;		On exit  : 0/0
  3778 ;;		Unchanged: 0/0
  3779 ;; Data sizes:     COMMON   BANK0   BANK1   BANK3   BANK2
  3780 ;;      Params:         0       0       0       0       0
  3781 ;;      Locals:         1       0       0       0       0
  3782 ;;      Temps:          0       0       0       0       0
  3783 ;;      Totals:         1       0       0       0       0
  3784 ;;Total ram usage:        1 bytes
  3785 ;; Hardware stack levels used:    1
  3786 ;; Hardware stack levels required when called:    2
  3787 ;; This function calls:
  3788 ;;		Nothing
  3789 ;; This function is called by:
  3790 ;;		_SW_Task
  3791 ;;		_TempSetting_State
  3792 ;; This function uses a non-reentrant model
  3793 ;;
  3794                           
  3795                           
  3796                           ;psect for function _SW_getState
  3797  1741                     _SW_getState:
  3798                           
  3799                           ;incstack = 0
  3800                           ; Regs used in _SW_getState: [wreg-fsr0h+status,2+status,0]
  3801                           ;SW_getState@sw_index stored from wreg
  3802  1741  00F3               	movwf	SW_getState@sw_index
  3803  1742                     l2881:
  3804                           
  3805                           ;SW.c: 62:  return g_sw_states[sw_index];
  3806  1742  0873               	movf	SW_getState@sw_index,w
  3807  1743  3EAA               	addlw	(low (_g_sw_states| 0))& (0+255)
  3808  1744  0084               	movwf	4
  3809  1745  1383               	bcf	3,7	;select IRP bank1
  3810  1746  0800               	movf	0,w
  3811  1747                     l250:
  3812  1747  0008               	return
  3813  1748                     __end_of_SW_getState:
  3814                           
  3815                           	psect	text15
  3816  0C07                     __ptext15:	
  3817 ;; *************** function _TempControl_State *****************
  3818 ;; Defined at:
  3819 ;;		line 132 in file "ElectricWaterHeater.c"
  3820 ;; Parameters:    Size  Location     Type
  3821 ;;		None
  3822 ;; Auto vars:     Size  Location     Type
  3823 ;;		None
  3824 ;; Return value:  Size  Location     Type
  3825 ;;                  1    wreg      void 
  3826 ;; Registers used:
  3827 ;;		wreg, fsr0l, fsr0h, status,2, status,0, btemp+1, pclath, cstack
  3828 ;; Tracked objects:
  3829 ;;		On entry : 0/0
  3830 ;;		On exit  : 0/0
  3831 ;;		Unchanged: 0/0
  3832 ;; Data sizes:     COMMON   BANK0   BANK1   BANK3   BANK2
  3833 ;;      Params:         0       0       0       0       0
  3834 ;;      Locals:         0       0       0       0       0
  3835 ;;      Temps:          0       3       0       0       0
  3836 ;;      Totals:         0       3       0       0       0
  3837 ;;Total ram usage:        3 bytes
  3838 ;; Hardware stack levels used:    1
  3839 ;; Hardware stack levels required when called:    4
  3840 ;; This function calls:
  3841 ;;		_Fan_Off
  3842 ;;		_Fan_On
  3843 ;;		_Heater_Off
  3844 ;;		_Heater_On
  3845 ;; This function is called by:
  3846 ;;		_EWH_updateState
  3847 ;; This function uses a non-reentrant model
  3848 ;;
  3849                           
  3850                           
  3851                           ;psect for function _TempControl_State
  3852  0C07                     _TempControl_State:
  3853  0C07                     l4271:	
  3854                           ;incstack = 0
  3855                           ; Regs used in _TempControl_State: [wreg-fsr0h+status,2+status,0+btemp+1+pclath+cstack]
  3856                           
  3857                           
  3858                           ;ElectricWaterHeater.c: 133:     if ((EWH_TempSettings.g_avg_waterTemp >= (EWH_TempSetti
      +                          ngs.g_required_Temp + 5))) {
  3859  0C07  1683               	bsf	3,5	;RP0=1, select bank1
  3860  0C08  1303               	bcf	3,6	;RP1=0, select bank1
  3861  0C09  0849               	movf	(_EWH_TempSettings^(0+128)+2),w
  3862  0C0A  3E05               	addlw	5
  3863  0C0B  1283               	bcf	3,5	;RP0=0, select bank0
  3864  0C0C  1303               	bcf	3,6	;RP1=0, select bank0
  3865  0C0D  00A4               	movwf	??_TempControl_State
  3866  0C0E  3000               	movlw	0
  3867  0C0F  1803               	skipnc
  3868  0C10  3001               	movlw	1
  3869  0C11  00A5               	movwf	??_TempControl_State+1
  3870  0C12  0825               	movf	??_TempControl_State+1,w
  3871  0C13  3A80               	xorlw	128
  3872  0C14  3C80               	sublw	128
  3873  0C15  1D03               	skipz
  3874  0C16  2C1B               	goto	u4615
  3875  0C17  0824               	movf	??_TempControl_State,w
  3876  0C18  1683               	bsf	3,5	;RP0=1, select bank1
  3877  0C19  1303               	bcf	3,6	;RP1=0, select bank1
  3878  0C1A  0247               	subwf	_EWH_TempSettings^(0+128),w
  3879  0C1B                     u4615:
  3880  0C1B  1C03               	skipc
  3881  0C1C  2C1E               	goto	u4611
  3882  0C1D  2C1F               	goto	u4610
  3883  0C1E                     u4611:
  3884  0C1E  2C29               	goto	l4275
  3885  0C1F                     u4610:
  3886  0C1F                     l4273:
  3887                           
  3888                           ;ElectricWaterHeater.c: 137:         Heater_Off();
  3889  0C1F  160A  118A  2750  120A  158A  	fcall	_Heater_Off
  3890                           
  3891                           ;ElectricWaterHeater.c: 141:         Fan_On();
  3892  0C24  160A  118A  2788  120A  158A  	fcall	_Fan_On
  3893  0C29                     l4275:
  3894                           
  3895                           ;ElectricWaterHeater.c: 144:    if ((EWH_TempSettings.g_avg_waterTemp <= (EWH_TempSettin
      +                          gs.g_required_Temp - 5))) {
  3896  0C29  1683               	bsf	3,5	;RP0=1, select bank1
  3897  0C2A  1303               	bcf	3,6	;RP1=0, select bank1
  3898  0C2B  0849               	movf	(_EWH_TempSettings^(0+128)+2),w
  3899  0C2C  3EFB               	addlw	251
  3900  0C2D  1283               	bcf	3,5	;RP0=0, select bank0
  3901  0C2E  1303               	bcf	3,6	;RP1=0, select bank0
  3902  0C2F  00A4               	movwf	??_TempControl_State
  3903  0C30  30FF               	movlw	255
  3904  0C31  1803               	skipnc
  3905  0C32  3000               	movlw	0
  3906  0C33  00A5               	movwf	??_TempControl_State+1
  3907  0C34  0825               	movf	??_TempControl_State+1,w
  3908  0C35  3A80               	xorlw	128
  3909  0C36  00A6               	movwf	??_TempControl_State+2
  3910  0C37  3080               	movlw	128
  3911  0C38  0226               	subwf	??_TempControl_State+2,w
  3912  0C39  1D03               	skipz
  3913  0C3A  2C41               	goto	u4625
  3914  0C3B  1683               	bsf	3,5	;RP0=1, select bank1
  3915  0C3C  1303               	bcf	3,6	;RP1=0, select bank1
  3916  0C3D  0847               	movf	_EWH_TempSettings^(0+128),w
  3917  0C3E  1283               	bcf	3,5	;RP0=0, select bank0
  3918  0C3F  1303               	bcf	3,6	;RP1=0, select bank0
  3919  0C40  0224               	subwf	??_TempControl_State,w
  3920  0C41                     u4625:
  3921  0C41  1C03               	skipc
  3922  0C42  2C44               	goto	u4621
  3923  0C43  2C45               	goto	u4620
  3924  0C44                     u4621:
  3925  0C44  2C4F               	goto	l410
  3926  0C45                     u4620:
  3927  0C45                     l4277:
  3928                           
  3929                           ;ElectricWaterHeater.c: 147:         Fan_Off();
  3930  0C45  160A  118A  2748  120A  158A  	fcall	_Fan_Off
  3931                           
  3932                           ;ElectricWaterHeater.c: 151:         Heater_On();
  3933  0C4A  160A  118A  2791  120A  158A  	fcall	_Heater_On
  3934  0C4F                     l410:
  3935  0C4F  0008               	return
  3936  0C50                     __end_of_TempControl_State:
  3937                           
  3938                           	psect	text16
  3939  1791                     __ptext16:	
  3940 ;; *************** function _Heater_On *****************
  3941 ;; Defined at:
  3942 ;;		line 30 in file "Heater.c"
  3943 ;; Parameters:    Size  Location     Type
  3944 ;;		None
  3945 ;; Auto vars:     Size  Location     Type
  3946 ;;		None
  3947 ;; Return value:  Size  Location     Type
  3948 ;;                  1    wreg      void 
  3949 ;; Registers used:
  3950 ;;		wreg, fsr0l, fsr0h, status,2, status,0, btemp+1, pclath, cstack
  3951 ;; Tracked objects:
  3952 ;;		On entry : 0/0
  3953 ;;		On exit  : 0/0
  3954 ;;		Unchanged: 0/0
  3955 ;; Data sizes:     COMMON   BANK0   BANK1   BANK3   BANK2
  3956 ;;      Params:         0       0       0       0       0
  3957 ;;      Locals:         0       0       0       0       0
  3958 ;;      Temps:          0       0       0       0       0
  3959 ;;      Totals:         0       0       0       0       0
  3960 ;;Total ram usage:        0 bytes
  3961 ;; Hardware stack levels used:    1
  3962 ;; Hardware stack levels required when called:    3
  3963 ;; This function calls:
  3964 ;;		_Dio_WriteChannel
  3965 ;; This function is called by:
  3966 ;;		_TempControl_State
  3967 ;; This function uses a non-reentrant model
  3968 ;;
  3969                           
  3970                           
  3971                           ;psect for function _Heater_On
  3972  1791                     _Heater_On:
  3973  1791                     l2879:	
  3974                           ;incstack = 0
  3975                           ; Regs used in _Heater_On: [wreg-fsr0h+status,2+status,0+btemp+1+pclath+cstack]
  3976                           
  3977                           
  3978                           ;Heater.c: 31:     Dio_WriteChannel((uint8)0x04, 0x01U);
  3979  1791  01F3               	clrf	Dio_WriteChannel@Level
  3980  1792  0AF3               	incf	Dio_WriteChannel@Level,f
  3981  1793  3004               	movlw	4
  3982  1794  120A  118A  26E5  160A  118A  	fcall	_Dio_WriteChannel
  3983  1799                     l159:
  3984  1799  0008               	return
  3985  179A                     __end_of_Heater_On:
  3986                           
  3987                           	psect	text17
  3988  1788                     __ptext17:	
  3989 ;; *************** function _Fan_On *****************
  3990 ;; Defined at:
  3991 ;;		line 31 in file "fan.c"
  3992 ;; Parameters:    Size  Location     Type
  3993 ;;		None
  3994 ;; Auto vars:     Size  Location     Type
  3995 ;;		None
  3996 ;; Return value:  Size  Location     Type
  3997 ;;                  1    wreg      void 
  3998 ;; Registers used:
  3999 ;;		wreg, fsr0l, fsr0h, status,2, status,0, btemp+1, pclath, cstack
  4000 ;; Tracked objects:
  4001 ;;		On entry : 0/0
  4002 ;;		On exit  : 0/0
  4003 ;;		Unchanged: 0/0
  4004 ;; Data sizes:     COMMON   BANK0   BANK1   BANK3   BANK2
  4005 ;;      Params:         0       0       0       0       0
  4006 ;;      Locals:         0       0       0       0       0
  4007 ;;      Temps:          0       0       0       0       0
  4008 ;;      Totals:         0       0       0       0       0
  4009 ;;Total ram usage:        0 bytes
  4010 ;; Hardware stack levels used:    1
  4011 ;; Hardware stack levels required when called:    3
  4012 ;; This function calls:
  4013 ;;		_Dio_WriteChannel
  4014 ;; This function is called by:
  4015 ;;		_TempControl_State
  4016 ;; This function uses a non-reentrant model
  4017 ;;
  4018                           
  4019                           
  4020                           ;psect for function _Fan_On
  4021  1788                     _Fan_On:
  4022  1788                     l2889:	
  4023                           ;incstack = 0
  4024                           ; Regs used in _Fan_On: [wreg-fsr0h+status,2+status,0+btemp+1+pclath+cstack]
  4025                           
  4026                           
  4027                           ;fan.c: 32:     Dio_WriteChannel((uint8)0x03, 0x01U);
  4028  1788  01F3               	clrf	Dio_WriteChannel@Level
  4029  1789  0AF3               	incf	Dio_WriteChannel@Level,f
  4030  178A  3003               	movlw	3
  4031  178B  120A  118A  26E5  160A  118A  	fcall	_Dio_WriteChannel
  4032  1790                     l272:
  4033  1790  0008               	return
  4034  1791                     __end_of_Fan_On:
  4035                           
  4036                           	psect	text18
  4037  0962                     __ptext18:	
  4038 ;; *************** function _Display_Task *****************
  4039 ;; Defined at:
  4040 ;;		line 104 in file "ElectricWaterHeater.c"
  4041 ;; Parameters:    Size  Location     Type
  4042 ;;		None
  4043 ;; Auto vars:     Size  Location     Type
  4044 ;;		None
  4045 ;; Return value:  Size  Location     Type
  4046 ;;                  1    wreg      void 
  4047 ;; Registers used:
  4048 ;;		wreg, fsr0l, fsr0h, status,2, status,0, btemp+1, pclath, cstack
  4049 ;; Tracked objects:
  4050 ;;		On entry : 0/0
  4051 ;;		On exit  : 0/0
  4052 ;;		Unchanged: 0/0
  4053 ;; Data sizes:     COMMON   BANK0   BANK1   BANK3   BANK2
  4054 ;;      Params:         0       0       0       0       0
  4055 ;;      Locals:         0       0       0       0       0
  4056 ;;      Temps:          0       0       0       0       0
  4057 ;;      Totals:         0       0       0       0       0
  4058 ;;Total ram usage:        0 bytes
  4059 ;; Hardware stack levels used:    1
  4060 ;; Hardware stack levels required when called:    5
  4061 ;; This function calls:
  4062 ;;		_Disp_turnDiplaysOff
  4063 ;;		_Disp_updateValue
  4064 ;;		_Disp_updateValue_blink
  4065 ;; This function is called by:
  4066 ;;		_Os_sch
  4067 ;; This function uses a non-reentrant model
  4068 ;;
  4069                           
  4070                           
  4071                           ;psect for function _Display_Task
  4072  0962                     _Display_Task:
  4073  0962                     l4369:	
  4074                           ;incstack = 0
  4075                           ; Regs used in _Display_Task: [wreg-fsr0h+status,2+status,0+btemp+1+pclath+cstack]
  4076                           
  4077                           
  4078                           ;ElectricWaterHeater.c: 106:     if (g_curr_heater_state == OFF_STATE) {
  4079  0962  1283               	bcf	3,5	;RP0=0, select bank0
  4080  0963  1303               	bcf	3,6	;RP1=0, select bank0
  4081  0964  086C               	movf	_g_curr_heater_state,w
  4082  0965  1D03               	btfss	3,2
  4083  0966  2968               	goto	u4811
  4084  0967  2969               	goto	u4810
  4085  0968                     u4811:
  4086  0968  296F               	goto	l4373
  4087  0969                     u4810:
  4088  0969                     l4371:
  4089                           
  4090                           ;ElectricWaterHeater.c: 107:         Disp_turnDiplaysOff();
  4091  0969  160A  118A  273A  120A  158A  	fcall	_Disp_turnDiplaysOff
  4092                           
  4093                           ;ElectricWaterHeater.c: 108:     }
  4094  096E  2985               	goto	l401
  4095  096F                     l4373:
  4096  096F  036C               	decf	_g_curr_heater_state,w
  4097  0970  1D03               	btfss	3,2
  4098  0971  2973               	goto	u4821
  4099  0972  2974               	goto	u4820
  4100  0973                     u4821:
  4101  0973  297D               	goto	l4377
  4102  0974                     u4820:
  4103  0974                     l4375:
  4104                           
  4105                           ;ElectricWaterHeater.c: 111:         Disp_updateValue_blink(EWH_TempSettings.g_required_
      +                          Temp);
  4106  0974  1683               	bsf	3,5	;RP0=1, select bank1
  4107  0975  1303               	bcf	3,6	;RP1=0, select bank1
  4108  0976  0849               	movf	(_EWH_TempSettings^(0+128)+2),w
  4109  0977  120A  158A  21D6  120A  158A  	fcall	_Disp_updateValue_blink
  4110                           
  4111                           ;ElectricWaterHeater.c: 112:     }
  4112  097C  2985               	goto	l401
  4113  097D                     l4377:
  4114                           
  4115                           ;ElectricWaterHeater.c: 114:         Disp_updateValue(EWH_TempSettings.g_avg_waterTemp);
  4116  097D  1683               	bsf	3,5	;RP0=1, select bank1
  4117  097E  1303               	bcf	3,6	;RP1=0, select bank1
  4118  097F  0847               	movf	_EWH_TempSettings^(0+128),w
  4119  0980  120A  158A  26B0  120A  158A  	fcall	_Disp_updateValue
  4120  0985                     l401:
  4121  0985  0008               	return
  4122  0986                     __end_of_Display_Task:
  4123                           
  4124                           	psect	text19
  4125  09D6                     __ptext19:	
  4126 ;; *************** function _Disp_updateValue_blink *****************
  4127 ;; Defined at:
  4128 ;;		line 72 in file "SSD.c"
  4129 ;; Parameters:    Size  Location     Type
  4130 ;;  value           1    wreg     unsigned char 
  4131 ;; Auto vars:     Size  Location     Type
  4132 ;;  value           1   14[BANK0 ] unsigned char 
  4133 ;; Return value:  Size  Location     Type
  4134 ;;                  1    wreg      void 
  4135 ;; Registers used:
  4136 ;;		wreg, fsr0l, fsr0h, status,2, status,0, btemp+1, pclath, cstack
  4137 ;; Tracked objects:
  4138 ;;		On entry : 0/0
  4139 ;;		On exit  : 0/0
  4140 ;;		Unchanged: 0/0
  4141 ;; Data sizes:     COMMON   BANK0   BANK1   BANK3   BANK2
  4142 ;;      Params:         0       0       0       0       0
  4143 ;;      Locals:         0       1       0       0       0
  4144 ;;      Temps:          0       0       0       0       0
  4145 ;;      Totals:         0       1       0       0       0
  4146 ;;Total ram usage:        1 bytes
  4147 ;; Hardware stack levels used:    1
  4148 ;; Hardware stack levels required when called:    4
  4149 ;; This function calls:
  4150 ;;		_Disp_turnDiplaysOff
  4151 ;;		_Disp_updateValue
  4152 ;; This function is called by:
  4153 ;;		_Display_Task
  4154 ;; This function uses a non-reentrant model
  4155 ;;
  4156                           
  4157                           
  4158                           ;psect for function _Disp_updateValue_blink
  4159  09D6                     _Disp_updateValue_blink:
  4160                           
  4161                           ;incstack = 0
  4162                           ; Regs used in _Disp_updateValue_blink: [wreg-fsr0h+status,2+status,0+btemp+1+pclath+cst
      +                          ack]
  4163                           ;Disp_updateValue_blink@value stored from wreg
  4164  09D6  1283               	bcf	3,5	;RP0=0, select bank0
  4165  09D7  1303               	bcf	3,6	;RP1=0, select bank0
  4166  09D8  00AE               	movwf	Disp_updateValue_blink@value
  4167  09D9                     l4261:
  4168                           
  4169                           ;SSD.c: 73: static uint16 blink = 0;;SSD.c: 74:     blink++;
  4170  09D9  3001               	movlw	1
  4171  09DA  07E9               	addwf	Disp_updateValue_blink@blink,f
  4172  09DB  1803               	skipnc
  4173  09DC  0AEA               	incf	Disp_updateValue_blink@blink+1,f
  4174  09DD  3000               	movlw	0
  4175  09DE  07EA               	addwf	Disp_updateValue_blink@blink+1,f
  4176                           
  4177                           ;SSD.c: 75:     if (blink < 100) {
  4178  09DF  3000               	movlw	0
  4179  09E0  026A               	subwf	Disp_updateValue_blink@blink+1,w
  4180  09E1  3064               	movlw	100
  4181  09E2  1903               	skipnz
  4182  09E3  0269               	subwf	Disp_updateValue_blink@blink,w
  4183  09E4  1803               	skipnc
  4184  09E5  29E7               	goto	u4591
  4185  09E6  29E8               	goto	u4590
  4186  09E7                     u4591:
  4187  09E7  29EF               	goto	l4265
  4188  09E8                     u4590:
  4189  09E8                     l4263:
  4190                           
  4191                           ;SSD.c: 77:         Disp_updateValue(value);
  4192  09E8  082E               	movf	Disp_updateValue_blink@value,w
  4193  09E9  120A  158A  26B0  120A  158A  	fcall	_Disp_updateValue
  4194                           
  4195                           ;SSD.c: 78:     } else if (blink < 200) {
  4196  09EE  2A00               	goto	l469
  4197  09EF                     l4265:
  4198  09EF  3000               	movlw	0
  4199  09F0  026A               	subwf	Disp_updateValue_blink@blink+1,w
  4200  09F1  30C8               	movlw	200
  4201  09F2  1903               	skipnz
  4202  09F3  0269               	subwf	Disp_updateValue_blink@blink,w
  4203  09F4  1803               	skipnc
  4204  09F5  29F7               	goto	u4601
  4205  09F6  29F8               	goto	u4600
  4206  09F7                     u4601:
  4207  09F7  29FE               	goto	l4269
  4208  09F8                     u4600:
  4209  09F8                     l4267:
  4210                           
  4211                           ;SSD.c: 80:         Disp_turnDiplaysOff();
  4212  09F8  160A  118A  273A  120A  158A  	fcall	_Disp_turnDiplaysOff
  4213                           
  4214                           ;SSD.c: 81:     } else {
  4215  09FD  2A00               	goto	l469
  4216  09FE                     l4269:
  4217                           
  4218                           ;SSD.c: 82:         blink = 0;
  4219  09FE  01E9               	clrf	Disp_updateValue_blink@blink
  4220  09FF  01EA               	clrf	Disp_updateValue_blink@blink+1
  4221  0A00                     l469:
  4222  0A00  0008               	return
  4223  0A01                     __end_of_Disp_updateValue_blink:
  4224                           
  4225                           	psect	text20
  4226  0EB0                     __ptext20:	
  4227 ;; *************** function _Disp_updateValue *****************
  4228 ;; Defined at:
  4229 ;;		line 56 in file "SSD.c"
  4230 ;; Parameters:    Size  Location     Type
  4231 ;;  value           1    wreg     unsigned char 
  4232 ;; Auto vars:     Size  Location     Type
  4233 ;;  value           1    7[COMMON] unsigned char 
  4234 ;; Return value:  Size  Location     Type
  4235 ;;                  1    wreg      void 
  4236 ;; Registers used:
  4237 ;;		wreg, fsr0l, fsr0h, status,2, status,0, btemp+1, pclath, cstack
  4238 ;; Tracked objects:
  4239 ;;		On entry : 0/0
  4240 ;;		On exit  : 0/0
  4241 ;;		Unchanged: 0/0
  4242 ;; Data sizes:     COMMON   BANK0   BANK1   BANK3   BANK2
  4243 ;;      Params:         0       0       0       0       0
  4244 ;;      Locals:         1       0       0       0       0
  4245 ;;      Temps:          0       2       0       0       0
  4246 ;;      Totals:         1       2       0       0       0
  4247 ;;Total ram usage:        3 bytes
  4248 ;; Hardware stack levels used:    1
  4249 ;; Hardware stack levels required when called:    3
  4250 ;; This function calls:
  4251 ;;		_Dio_WritePort
  4252 ;;		___awdiv
  4253 ;;		___awmod
  4254 ;; This function is called by:
  4255 ;;		_Display_Task
  4256 ;;		_Disp_updateValue_blink
  4257 ;; This function uses a non-reentrant model
  4258 ;;
  4259                           
  4260                           
  4261                           ;psect for function _Disp_updateValue
  4262  0EB0                     _Disp_updateValue:
  4263                           
  4264                           ;incstack = 0
  4265                           ; Regs used in _Disp_updateValue: [wreg-fsr0h+status,2+status,0+btemp+1+pclath+cstack]
  4266                           ;Disp_updateValue@value stored from wreg
  4267  0EB0  00F7               	movwf	Disp_updateValue@value
  4268  0EB1                     l4185:
  4269                           
  4270                           ;SSD.c: 57:     (Dio_WritePort((uint8)0,g_SSD_DataArr[value / 10]));
  4271  0EB1  300A               	movlw	10
  4272  0EB2  00F3               	movwf	___awdiv@divisor
  4273  0EB3  3000               	movlw	0
  4274  0EB4  00F4               	movwf	___awdiv@divisor+1
  4275  0EB5  0877               	movf	Disp_updateValue@value,w
  4276  0EB6  1283               	bcf	3,5	;RP0=0, select bank0
  4277  0EB7  1303               	bcf	3,6	;RP1=0, select bank0
  4278  0EB8  00AC               	movwf	??_Disp_updateValue
  4279  0EB9  01AD               	clrf	??_Disp_updateValue+1
  4280  0EBA  082C               	movf	??_Disp_updateValue,w
  4281  0EBB  00F5               	movwf	___awdiv@dividend
  4282  0EBC  082D               	movf	??_Disp_updateValue+1,w
  4283  0EBD  00F6               	movwf	___awdiv@dividend+1
  4284  0EBE  120A  158A  2647  120A  158A  	fcall	___awdiv
  4285  0EC3  0873               	movf	?___awdiv,w
  4286  0EC4  3EA0               	addlw	(low (_g_SSD_DataArr| 0))& (0+255)
  4287  0EC5  0084               	movwf	4
  4288  0EC6  1383               	bcf	3,7	;select IRP bank1
  4289  0EC7  0800               	movf	0,w
  4290  0EC8  00FF               	movwf	btemp+1
  4291  0EC9  087F               	movf	btemp+1,w
  4292  0ECA  1283               	bcf	3,5	;RP0=0, select bank0
  4293  0ECB  1303               	bcf	3,6	;RP1=0, select bank0
  4294  0ECC  00A4               	movwf	Dio_WritePort@Level
  4295  0ECD  3000               	movlw	0
  4296  0ECE  120A  158A  25EB  120A  158A  	fcall	_Dio_WritePort
  4297  0ED3                     l4187:
  4298                           
  4299                           ;SSD.c: 58:     PORTA |= (1 << 4);
  4300  0ED3  1283               	bcf	3,5	;RP0=0, select bank0
  4301  0ED4  1303               	bcf	3,6	;RP1=0, select bank0
  4302  0ED5  1605               	bsf	5,4	;volatile
  4303  0ED6                     l4189:
  4304                           
  4305                           ;SSD.c: 59:     _delay((unsigned long)((5)*(8000000/4000.0)));
  4306  0ED6  300D               	movlw	13
  4307  0ED7  1283               	bcf	3,5	;RP0=0, select bank0
  4308  0ED8  1303               	bcf	3,6	;RP1=0, select bank0
  4309  0ED9  00AD               	movwf	??_Disp_updateValue+1
  4310  0EDA  30FB               	movlw	251
  4311  0EDB  00AC               	movwf	??_Disp_updateValue
  4312  0EDC                     u4887:
  4313  0EDC  0BAC               	decfsz	??_Disp_updateValue,f
  4314  0EDD  2EDC               	goto	u4887
  4315  0EDE  0BAD               	decfsz	??_Disp_updateValue+1,f
  4316  0EDF  2EDC               	goto	u4887
  4317  0EE0                     l4191:
  4318                           
  4319                           ;SSD.c: 60:     PORTA &= ~(1 << 4);
  4320  0EE0  30EF               	movlw	239
  4321  0EE1  00FF               	movwf	btemp+1
  4322  0EE2  087F               	movf	btemp+1,w
  4323  0EE3  1283               	bcf	3,5	;RP0=0, select bank0
  4324  0EE4  1303               	bcf	3,6	;RP1=0, select bank0
  4325  0EE5  0585               	andwf	5,f	;volatile
  4326  0EE6                     l4193:
  4327                           
  4328                           ;SSD.c: 61:     (Dio_WritePort((uint8)0,g_SSD_DataArr[value % 10]));
  4329  0EE6  300A               	movlw	10
  4330  0EE7  00F3               	movwf	___awmod@divisor
  4331  0EE8  3000               	movlw	0
  4332  0EE9  00F4               	movwf	___awmod@divisor+1
  4333  0EEA  0877               	movf	Disp_updateValue@value,w
  4334  0EEB  00AC               	movwf	??_Disp_updateValue
  4335  0EEC  01AD               	clrf	??_Disp_updateValue+1
  4336  0EED  082C               	movf	??_Disp_updateValue,w
  4337  0EEE  00F5               	movwf	___awmod@dividend
  4338  0EEF  082D               	movf	??_Disp_updateValue+1,w
  4339  0EF0  00F6               	movwf	___awmod@dividend+1
  4340  0EF1  120A  158A  2590  120A  158A  	fcall	___awmod
  4341  0EF6  0873               	movf	?___awmod,w
  4342  0EF7  3EA0               	addlw	(low (_g_SSD_DataArr| 0))& (0+255)
  4343  0EF8  0084               	movwf	4
  4344  0EF9  1383               	bcf	3,7	;select IRP bank1
  4345  0EFA  0800               	movf	0,w
  4346  0EFB  00FF               	movwf	btemp+1
  4347  0EFC  087F               	movf	btemp+1,w
  4348  0EFD  1283               	bcf	3,5	;RP0=0, select bank0
  4349  0EFE  1303               	bcf	3,6	;RP1=0, select bank0
  4350  0EFF  00A4               	movwf	Dio_WritePort@Level
  4351  0F00  3000               	movlw	0
  4352  0F01  120A  158A  25EB  120A  158A  	fcall	_Dio_WritePort
  4353  0F06                     l4195:
  4354                           
  4355                           ;SSD.c: 62:     PORTA |= (1 << 5);
  4356  0F06  1283               	bcf	3,5	;RP0=0, select bank0
  4357  0F07  1303               	bcf	3,6	;RP1=0, select bank0
  4358  0F08  1685               	bsf	5,5	;volatile
  4359  0F09                     l4197:
  4360                           
  4361                           ;SSD.c: 63:     _delay((unsigned long)((5)*(8000000/4000.0)));
  4362  0F09  300D               	movlw	13
  4363  0F0A  1283               	bcf	3,5	;RP0=0, select bank0
  4364  0F0B  1303               	bcf	3,6	;RP1=0, select bank0
  4365  0F0C  00AD               	movwf	??_Disp_updateValue+1
  4366  0F0D  30FB               	movlw	251
  4367  0F0E  00AC               	movwf	??_Disp_updateValue
  4368  0F0F                     u4897:
  4369  0F0F  0BAC               	decfsz	??_Disp_updateValue,f
  4370  0F10  2F0F               	goto	u4897
  4371  0F11  0BAD               	decfsz	??_Disp_updateValue+1,f
  4372  0F12  2F0F               	goto	u4897
  4373                           
  4374                           ;SSD.c: 64:     PORTA &= ~(1 << 5);
  4375  0F13  30DF               	movlw	223
  4376  0F14  00FF               	movwf	btemp+1
  4377  0F15  087F               	movf	btemp+1,w
  4378  0F16  1283               	bcf	3,5	;RP0=0, select bank0
  4379  0F17  1303               	bcf	3,6	;RP1=0, select bank0
  4380  0F18  0585               	andwf	5,f	;volatile
  4381  0F19                     l457:
  4382  0F19  0008               	return
  4383  0F1A                     __end_of_Disp_updateValue:
  4384                           
  4385                           	psect	text21
  4386  0D90                     __ptext21:	
  4387 ;; *************** function ___awmod *****************
  4388 ;; Defined at:
  4389 ;;		line 5 in file "C:\Program Files\Microchip\xc8\v2.20\pic\sources\c90\common\awmod.c"
  4390 ;; Parameters:    Size  Location     Type
  4391 ;;  divisor         2    3[COMMON] int 
  4392 ;;  dividend        2    5[COMMON] int 
  4393 ;; Auto vars:     Size  Location     Type
  4394 ;;  sign            1    1[BANK0 ] unsigned char 
  4395 ;;  counter         1    0[BANK0 ] unsigned char 
  4396 ;; Return value:  Size  Location     Type
  4397 ;;                  2    3[COMMON] int 
  4398 ;; Registers used:
  4399 ;;		wreg, status,2, status,0, btemp+1
  4400 ;; Tracked objects:
  4401 ;;		On entry : 0/0
  4402 ;;		On exit  : 0/0
  4403 ;;		Unchanged: 0/0
  4404 ;; Data sizes:     COMMON   BANK0   BANK1   BANK3   BANK2
  4405 ;;      Params:         4       0       0       0       0
  4406 ;;      Locals:         0       2       0       0       0
  4407 ;;      Temps:          0       0       0       0       0
  4408 ;;      Totals:         4       2       0       0       0
  4409 ;;Total ram usage:        6 bytes
  4410 ;; Hardware stack levels used:    1
  4411 ;; Hardware stack levels required when called:    2
  4412 ;; This function calls:
  4413 ;;		Nothing
  4414 ;; This function is called by:
  4415 ;;		_Disp_updateValue
  4416 ;; This function uses a non-reentrant model
  4417 ;;
  4418                           
  4419                           
  4420                           ;psect for function ___awmod
  4421  0D90                     ___awmod:
  4422  0D90                     l4105:	
  4423                           ;incstack = 0
  4424                           ; Regs used in ___awmod: [wreg+status,2+status,0+btemp+1]
  4425                           
  4426  0D90  1283               	bcf	3,5	;RP0=0, select bank0
  4427  0D91  1303               	bcf	3,6	;RP1=0, select bank0
  4428  0D92  01A1               	clrf	___awmod@sign
  4429  0D93                     l4107:
  4430  0D93  1FF6               	btfss	___awmod@dividend+1,7
  4431  0D94  2D96               	goto	u4311
  4432  0D95  2D97               	goto	u4310
  4433  0D96                     u4311:
  4434  0D96  2D9E               	goto	l4113
  4435  0D97                     u4310:
  4436  0D97                     l4109:
  4437  0D97  09F5               	comf	___awmod@dividend,f
  4438  0D98  09F6               	comf	___awmod@dividend+1,f
  4439  0D99  0AF5               	incf	___awmod@dividend,f
  4440  0D9A  1903               	skipnz
  4441  0D9B  0AF6               	incf	___awmod@dividend+1,f
  4442  0D9C                     l4111:
  4443  0D9C  01A1               	clrf	___awmod@sign
  4444  0D9D  0AA1               	incf	___awmod@sign,f
  4445  0D9E                     l4113:
  4446  0D9E  1FF4               	btfss	___awmod@divisor+1,7
  4447  0D9F  2DA1               	goto	u4321
  4448  0DA0  2DA2               	goto	u4320
  4449  0DA1                     u4321:
  4450  0DA1  2DA7               	goto	l4117
  4451  0DA2                     u4320:
  4452  0DA2                     l4115:
  4453  0DA2  09F3               	comf	___awmod@divisor,f
  4454  0DA3  09F4               	comf	___awmod@divisor+1,f
  4455  0DA4  0AF3               	incf	___awmod@divisor,f
  4456  0DA5  1903               	skipnz
  4457  0DA6  0AF4               	incf	___awmod@divisor+1,f
  4458  0DA7                     l4117:
  4459  0DA7  0873               	movf	___awmod@divisor,w
  4460  0DA8  0474               	iorwf	___awmod@divisor+1,w
  4461  0DA9  1903               	btfsc	3,2
  4462  0DAA  2DAC               	goto	u4331
  4463  0DAB  2DAD               	goto	u4330
  4464  0DAC                     u4331:
  4465  0DAC  2DDC               	goto	l4135
  4466  0DAD                     u4330:
  4467  0DAD                     l4119:
  4468  0DAD  01A0               	clrf	___awmod@counter
  4469  0DAE  0AA0               	incf	___awmod@counter,f
  4470  0DAF  2DBB               	goto	l4125
  4471  0DB0                     l4121:
  4472  0DB0  3001               	movlw	1
  4473  0DB1                     u4345:
  4474  0DB1  1003               	clrc
  4475  0DB2  0DF3               	rlf	___awmod@divisor,f
  4476  0DB3  0DF4               	rlf	___awmod@divisor+1,f
  4477  0DB4  3EFF               	addlw	-1
  4478  0DB5  1D03               	skipz
  4479  0DB6  2DB1               	goto	u4345
  4480  0DB7                     l4123:
  4481  0DB7  3001               	movlw	1
  4482  0DB8  00FF               	movwf	btemp+1
  4483  0DB9  087F               	movf	btemp+1,w
  4484  0DBA  07A0               	addwf	___awmod@counter,f
  4485  0DBB                     l4125:
  4486  0DBB  1FF4               	btfss	___awmod@divisor+1,7
  4487  0DBC  2DBE               	goto	u4351
  4488  0DBD  2DBF               	goto	u4350
  4489  0DBE                     u4351:
  4490  0DBE  2DB0               	goto	l4121
  4491  0DBF                     u4350:
  4492  0DBF                     l4127:
  4493  0DBF  0874               	movf	___awmod@divisor+1,w
  4494  0DC0  0276               	subwf	___awmod@dividend+1,w
  4495  0DC1  1D03               	skipz
  4496  0DC2  2DC5               	goto	u4365
  4497  0DC3  0873               	movf	___awmod@divisor,w
  4498  0DC4  0275               	subwf	___awmod@dividend,w
  4499  0DC5                     u4365:
  4500  0DC5  1C03               	skipc
  4501  0DC6  2DC8               	goto	u4361
  4502  0DC7  2DC9               	goto	u4360
  4503  0DC8                     u4361:
  4504  0DC8  2DCF               	goto	l4131
  4505  0DC9                     u4360:
  4506  0DC9                     l4129:
  4507  0DC9  0873               	movf	___awmod@divisor,w
  4508  0DCA  02F5               	subwf	___awmod@dividend,f
  4509  0DCB  0874               	movf	___awmod@divisor+1,w
  4510  0DCC  1C03               	skipc
  4511  0DCD  03F6               	decf	___awmod@dividend+1,f
  4512  0DCE  02F6               	subwf	___awmod@dividend+1,f
  4513  0DCF                     l4131:
  4514  0DCF  3001               	movlw	1
  4515  0DD0                     u4375:
  4516  0DD0  1003               	clrc
  4517  0DD1  0CF4               	rrf	___awmod@divisor+1,f
  4518  0DD2  0CF3               	rrf	___awmod@divisor,f
  4519  0DD3  3EFF               	addlw	-1
  4520  0DD4  1D03               	skipz
  4521  0DD5  2DD0               	goto	u4375
  4522  0DD6                     l4133:
  4523  0DD6  3001               	movlw	1
  4524  0DD7  02A0               	subwf	___awmod@counter,f
  4525  0DD8  1D03               	btfss	3,2
  4526  0DD9  2DDB               	goto	u4381
  4527  0DDA  2DDC               	goto	u4380
  4528  0DDB                     u4381:
  4529  0DDB  2DBF               	goto	l4127
  4530  0DDC                     u4380:
  4531  0DDC                     l4135:
  4532  0DDC  0821               	movf	___awmod@sign,w
  4533  0DDD  1903               	btfsc	3,2
  4534  0DDE  2DE0               	goto	u4391
  4535  0DDF  2DE1               	goto	u4390
  4536  0DE0                     u4391:
  4537  0DE0  2DE6               	goto	l4139
  4538  0DE1                     u4390:
  4539  0DE1                     l4137:
  4540  0DE1  09F5               	comf	___awmod@dividend,f
  4541  0DE2  09F6               	comf	___awmod@dividend+1,f
  4542  0DE3  0AF5               	incf	___awmod@dividend,f
  4543  0DE4  1903               	skipnz
  4544  0DE5  0AF6               	incf	___awmod@dividend+1,f
  4545  0DE6                     l4139:
  4546  0DE6  0876               	movf	___awmod@dividend+1,w
  4547  0DE7  00F4               	movwf	?___awmod+1
  4548  0DE8  0875               	movf	___awmod@dividend,w
  4549  0DE9  00F3               	movwf	?___awmod
  4550  0DEA                     l905:
  4551  0DEA  0008               	return
  4552  0DEB                     __end_of___awmod:
  4553                           
  4554                           	psect	text22
  4555  0E47                     __ptext22:	
  4556 ;; *************** function ___awdiv *****************
  4557 ;; Defined at:
  4558 ;;		line 5 in file "C:\Program Files\Microchip\xc8\v2.20\pic\sources\c90\common\awdiv.c"
  4559 ;; Parameters:    Size  Location     Type
  4560 ;;  divisor         2    3[COMMON] int 
  4561 ;;  dividend        2    5[COMMON] int 
  4562 ;; Auto vars:     Size  Location     Type
  4563 ;;  quotient        2    2[BANK0 ] int 
  4564 ;;  sign            1    1[BANK0 ] unsigned char 
  4565 ;;  counter         1    0[BANK0 ] unsigned char 
  4566 ;; Return value:  Size  Location     Type
  4567 ;;                  2    3[COMMON] int 
  4568 ;; Registers used:
  4569 ;;		wreg, status,2, status,0, btemp+1
  4570 ;; Tracked objects:
  4571 ;;		On entry : 0/0
  4572 ;;		On exit  : 0/0
  4573 ;;		Unchanged: 0/0
  4574 ;; Data sizes:     COMMON   BANK0   BANK1   BANK3   BANK2
  4575 ;;      Params:         4       0       0       0       0
  4576 ;;      Locals:         0       4       0       0       0
  4577 ;;      Temps:          0       0       0       0       0
  4578 ;;      Totals:         4       4       0       0       0
  4579 ;;Total ram usage:        8 bytes
  4580 ;; Hardware stack levels used:    1
  4581 ;; Hardware stack levels required when called:    2
  4582 ;; This function calls:
  4583 ;;		Nothing
  4584 ;; This function is called by:
  4585 ;;		_Disp_updateValue
  4586 ;; This function uses a non-reentrant model
  4587 ;;
  4588                           
  4589                           
  4590                           ;psect for function ___awdiv
  4591  0E47                     ___awdiv:
  4592  0E47                     l4061:	
  4593                           ;incstack = 0
  4594                           ; Regs used in ___awdiv: [wreg+status,2+status,0+btemp+1]
  4595                           
  4596  0E47  1283               	bcf	3,5	;RP0=0, select bank0
  4597  0E48  1303               	bcf	3,6	;RP1=0, select bank0
  4598  0E49  01A1               	clrf	___awdiv@sign
  4599  0E4A                     l4063:
  4600  0E4A  1FF4               	btfss	___awdiv@divisor+1,7
  4601  0E4B  2E4D               	goto	u4211
  4602  0E4C  2E4E               	goto	u4210
  4603  0E4D                     u4211:
  4604  0E4D  2E55               	goto	l4069
  4605  0E4E                     u4210:
  4606  0E4E                     l4065:
  4607  0E4E  09F3               	comf	___awdiv@divisor,f
  4608  0E4F  09F4               	comf	___awdiv@divisor+1,f
  4609  0E50  0AF3               	incf	___awdiv@divisor,f
  4610  0E51  1903               	skipnz
  4611  0E52  0AF4               	incf	___awdiv@divisor+1,f
  4612  0E53                     l4067:
  4613  0E53  01A1               	clrf	___awdiv@sign
  4614  0E54  0AA1               	incf	___awdiv@sign,f
  4615  0E55                     l4069:
  4616  0E55  1FF6               	btfss	___awdiv@dividend+1,7
  4617  0E56  2E58               	goto	u4221
  4618  0E57  2E59               	goto	u4220
  4619  0E58                     u4221:
  4620  0E58  2E62               	goto	l4075
  4621  0E59                     u4220:
  4622  0E59                     l4071:
  4623  0E59  09F5               	comf	___awdiv@dividend,f
  4624  0E5A  09F6               	comf	___awdiv@dividend+1,f
  4625  0E5B  0AF5               	incf	___awdiv@dividend,f
  4626  0E5C  1903               	skipnz
  4627  0E5D  0AF6               	incf	___awdiv@dividend+1,f
  4628  0E5E                     l4073:
  4629  0E5E  3001               	movlw	1
  4630  0E5F  00FF               	movwf	btemp+1
  4631  0E60  087F               	movf	btemp+1,w
  4632  0E61  06A1               	xorwf	___awdiv@sign,f
  4633  0E62                     l4075:
  4634  0E62  01A2               	clrf	___awdiv@quotient
  4635  0E63  01A3               	clrf	___awdiv@quotient+1
  4636  0E64                     l4077:
  4637  0E64  0873               	movf	___awdiv@divisor,w
  4638  0E65  0474               	iorwf	___awdiv@divisor+1,w
  4639  0E66  1903               	btfsc	3,2
  4640  0E67  2E69               	goto	u4231
  4641  0E68  2E6A               	goto	u4230
  4642  0E69                     u4231:
  4643  0E69  2EA1               	goto	l4097
  4644  0E6A                     u4230:
  4645  0E6A                     l4079:
  4646  0E6A  01A0               	clrf	___awdiv@counter
  4647  0E6B  0AA0               	incf	___awdiv@counter,f
  4648  0E6C  2E78               	goto	l4085
  4649  0E6D                     l4081:
  4650  0E6D  3001               	movlw	1
  4651  0E6E                     u4245:
  4652  0E6E  1003               	clrc
  4653  0E6F  0DF3               	rlf	___awdiv@divisor,f
  4654  0E70  0DF4               	rlf	___awdiv@divisor+1,f
  4655  0E71  3EFF               	addlw	-1
  4656  0E72  1D03               	skipz
  4657  0E73  2E6E               	goto	u4245
  4658  0E74                     l4083:
  4659  0E74  3001               	movlw	1
  4660  0E75  00FF               	movwf	btemp+1
  4661  0E76  087F               	movf	btemp+1,w
  4662  0E77  07A0               	addwf	___awdiv@counter,f
  4663  0E78                     l4085:
  4664  0E78  1FF4               	btfss	___awdiv@divisor+1,7
  4665  0E79  2E7B               	goto	u4251
  4666  0E7A  2E7C               	goto	u4250
  4667  0E7B                     u4251:
  4668  0E7B  2E6D               	goto	l4081
  4669  0E7C                     u4250:
  4670  0E7C                     l4087:
  4671  0E7C  3001               	movlw	1
  4672  0E7D                     u4265:
  4673  0E7D  1003               	clrc
  4674  0E7E  0DA2               	rlf	___awdiv@quotient,f
  4675  0E7F  0DA3               	rlf	___awdiv@quotient+1,f
  4676  0E80  3EFF               	addlw	-1
  4677  0E81  1D03               	skipz
  4678  0E82  2E7D               	goto	u4265
  4679  0E83  0874               	movf	___awdiv@divisor+1,w
  4680  0E84  0276               	subwf	___awdiv@dividend+1,w
  4681  0E85  1D03               	skipz
  4682  0E86  2E89               	goto	u4275
  4683  0E87  0873               	movf	___awdiv@divisor,w
  4684  0E88  0275               	subwf	___awdiv@dividend,w
  4685  0E89                     u4275:
  4686  0E89  1C03               	skipc
  4687  0E8A  2E8C               	goto	u4271
  4688  0E8B  2E8D               	goto	u4270
  4689  0E8C                     u4271:
  4690  0E8C  2E94               	goto	l4093
  4691  0E8D                     u4270:
  4692  0E8D                     l4089:
  4693  0E8D  0873               	movf	___awdiv@divisor,w
  4694  0E8E  02F5               	subwf	___awdiv@dividend,f
  4695  0E8F  0874               	movf	___awdiv@divisor+1,w
  4696  0E90  1C03               	skipc
  4697  0E91  03F6               	decf	___awdiv@dividend+1,f
  4698  0E92  02F6               	subwf	___awdiv@dividend+1,f
  4699  0E93                     l4091:
  4700  0E93  1422               	bsf	___awdiv@quotient,0
  4701  0E94                     l4093:
  4702  0E94  3001               	movlw	1
  4703  0E95                     u4285:
  4704  0E95  1003               	clrc
  4705  0E96  0CF4               	rrf	___awdiv@divisor+1,f
  4706  0E97  0CF3               	rrf	___awdiv@divisor,f
  4707  0E98  3EFF               	addlw	-1
  4708  0E99  1D03               	skipz
  4709  0E9A  2E95               	goto	u4285
  4710  0E9B                     l4095:
  4711  0E9B  3001               	movlw	1
  4712  0E9C  02A0               	subwf	___awdiv@counter,f
  4713  0E9D  1D03               	btfss	3,2
  4714  0E9E  2EA0               	goto	u4291
  4715  0E9F  2EA1               	goto	u4290
  4716  0EA0                     u4291:
  4717  0EA0  2E7C               	goto	l4087
  4718  0EA1                     u4290:
  4719  0EA1                     l4097:
  4720  0EA1  0821               	movf	___awdiv@sign,w
  4721  0EA2  1903               	btfsc	3,2
  4722  0EA3  2EA5               	goto	u4301
  4723  0EA4  2EA6               	goto	u4300
  4724  0EA5                     u4301:
  4725  0EA5  2EAB               	goto	l4101
  4726  0EA6                     u4300:
  4727  0EA6                     l4099:
  4728  0EA6  09A2               	comf	___awdiv@quotient,f
  4729  0EA7  09A3               	comf	___awdiv@quotient+1,f
  4730  0EA8  0AA2               	incf	___awdiv@quotient,f
  4731  0EA9  1903               	skipnz
  4732  0EAA  0AA3               	incf	___awdiv@quotient+1,f
  4733  0EAB                     l4101:
  4734  0EAB  0823               	movf	___awdiv@quotient+1,w
  4735  0EAC  00F4               	movwf	?___awdiv+1
  4736  0EAD  0822               	movf	___awdiv@quotient,w
  4737  0EAE  00F3               	movwf	?___awdiv
  4738  0EAF                     l892:
  4739  0EAF  0008               	return
  4740  0EB0                     __end_of___awdiv:
  4741                           
  4742                           	psect	text23
  4743  0DEB                     __ptext23:	
  4744 ;; *************** function _Dio_WritePort *****************
  4745 ;; Defined at:
  4746 ;;		line 42 in file "DIO.c"
  4747 ;; Parameters:    Size  Location     Type
  4748 ;;  PortId          1    wreg     unsigned char 
  4749 ;;  Level           1    4[BANK0 ] unsigned char 
  4750 ;; Auto vars:     Size  Location     Type
  4751 ;;  PortId          1    9[BANK0 ] unsigned char 
  4752 ;;  port_ptr        2   10[BANK0 ] PTR volatile unsigned ch
  4753 ;;		 -> PORTE(1), PORTD(1), PORTC(1), PORTB(1), 
  4754 ;;		 -> PORTA(1), NULL(0), 
  4755 ;;  error           1    8[BANK0 ] unsigned char 
  4756 ;; Return value:  Size  Location     Type
  4757 ;;                  1    wreg      void 
  4758 ;; Registers used:
  4759 ;;		wreg, fsr0l, fsr0h, status,2, status,0, btemp+1
  4760 ;; Tracked objects:
  4761 ;;		On entry : 0/0
  4762 ;;		On exit  : 0/0
  4763 ;;		Unchanged: 0/0
  4764 ;; Data sizes:     COMMON   BANK0   BANK1   BANK3   BANK2
  4765 ;;      Params:         0       1       0       0       0
  4766 ;;      Locals:         0       4       0       0       0
  4767 ;;      Temps:          0       3       0       0       0
  4768 ;;      Totals:         0       8       0       0       0
  4769 ;;Total ram usage:        8 bytes
  4770 ;; Hardware stack levels used:    1
  4771 ;; Hardware stack levels required when called:    2
  4772 ;; This function calls:
  4773 ;;		Nothing
  4774 ;; This function is called by:
  4775 ;;		_Disp_updateValue
  4776 ;; This function uses a non-reentrant model
  4777 ;;
  4778                           
  4779                           
  4780                           ;psect for function _Dio_WritePort
  4781  0DEB                     _Dio_WritePort:
  4782                           
  4783                           ;incstack = 0
  4784                           ; Regs used in _Dio_WritePort: [wreg-fsr0h+status,2+status,0+btemp+1]
  4785                           ;Dio_WritePort@PortId stored from wreg
  4786  0DEB  1283               	bcf	3,5	;RP0=0, select bank0
  4787  0DEC  1303               	bcf	3,6	;RP1=0, select bank0
  4788  0DED  00A9               	movwf	Dio_WritePort@PortId
  4789  0DEE                     l4017:
  4790                           
  4791                           ;DIO.c: 42: void Dio_WritePort(Dio_PortType PortId, Dio_PortLevelType Level);DIO.c: 43: 
      +                          {;DIO.c: 44:   volatile uint8 *port_ptr = ((void *)0) ;
  4792  0DEE  01AA               	clrf	Dio_WritePort@port_ptr
  4793  0DEF  01AB               	clrf	Dio_WritePort@port_ptr+1
  4794                           
  4795                           ;DIO.c: 45:  boolean error = 0x00U ;
  4796  0DF0  01A8               	clrf	Dio_WritePort@error
  4797  0DF1                     l4019:
  4798                           
  4799                           ;DIO.c: 47:  if ((0U) == Dio_status)
  4800  0DF1  086F               	movf	_Dio_status,w
  4801  0DF2  1D03               	btfss	3,2
  4802  0DF3  2DF5               	goto	u4161
  4803  0DF4  2DF6               	goto	u4160
  4804  0DF5                     u4161:
  4805  0DF5  2DF8               	goto	l4023
  4806  0DF6                     u4160:
  4807  0DF6                     l4021:
  4808                           
  4809                           ;DIO.c: 48:  {;DIO.c: 50:   error = 0x01U ;
  4810  0DF6  01A8               	clrf	Dio_WritePort@error
  4811  0DF7  0AA8               	incf	Dio_WritePort@error,f
  4812  0DF8                     l4023:	
  4813                           ;DIO.c: 52:  }
  4814                           
  4815                           
  4816                           ;DIO.c: 57:  if ((1U)<=PortId)
  4817  0DF8  0829               	movf	Dio_WritePort@PortId,w
  4818  0DF9  1903               	btfsc	3,2
  4819  0DFA  2DFC               	goto	u4171
  4820  0DFB  2DFD               	goto	u4170
  4821  0DFC                     u4171:
  4822  0DFC  2DFF               	goto	l4027
  4823  0DFD                     u4170:
  4824  0DFD                     l4025:
  4825                           
  4826                           ;DIO.c: 58:  {;DIO.c: 60:   error = 0x01U ;
  4827  0DFD  01A8               	clrf	Dio_WritePort@error
  4828  0DFE  0AA8               	incf	Dio_WritePort@error,f
  4829  0DFF                     l4027:	
  4830                           ;DIO.c: 62:  }
  4831                           
  4832                           
  4833                           ;DIO.c: 68:  if (0x00U == error)
  4834  0DFF  0828               	movf	Dio_WritePort@error,w
  4835  0E00  1D03               	btfss	3,2
  4836  0E01  2E03               	goto	u4181
  4837  0E02  2E04               	goto	u4180
  4838  0E03                     u4181:
  4839  0E03  2E46               	goto	l68
  4840  0E04                     u4180:
  4841  0E04  2E1E               	goto	l4033
  4842  0E05                     l61:	
  4843                           ;DIO.c: 72:   {;DIO.c: 73:   case 0: port_ptr = &PORTA ;
  4844                           
  4845  0E05  3000               	movlw	0
  4846  0E06  00AB               	movwf	Dio_WritePort@port_ptr+1
  4847  0E07  3005               	movlw	5
  4848  0E08  00AA               	movwf	Dio_WritePort@port_ptr
  4849                           
  4850                           ;DIO.c: 74:   break ;
  4851  0E09  2E3D               	goto	l4035
  4852  0E0A                     l63:	
  4853                           ;DIO.c: 75:   case 1: port_ptr = &PORTB ;
  4854                           
  4855  0E0A  3000               	movlw	0
  4856  0E0B  00AB               	movwf	Dio_WritePort@port_ptr+1
  4857  0E0C  3006               	movlw	6
  4858  0E0D  00AA               	movwf	Dio_WritePort@port_ptr
  4859                           
  4860                           ;DIO.c: 76:   break;
  4861  0E0E  2E3D               	goto	l4035
  4862  0E0F                     l64:	
  4863                           ;DIO.c: 77:   case 2: port_ptr = &PORTC;
  4864                           
  4865  0E0F  3000               	movlw	0
  4866  0E10  00AB               	movwf	Dio_WritePort@port_ptr+1
  4867  0E11  3007               	movlw	7
  4868  0E12  00AA               	movwf	Dio_WritePort@port_ptr
  4869                           
  4870                           ;DIO.c: 78:   break ;
  4871  0E13  2E3D               	goto	l4035
  4872  0E14                     l65:	
  4873                           ;DIO.c: 79:   case 3: port_ptr = &PORTD;
  4874                           
  4875  0E14  3000               	movlw	0
  4876  0E15  00AB               	movwf	Dio_WritePort@port_ptr+1
  4877  0E16  3008               	movlw	8
  4878  0E17  00AA               	movwf	Dio_WritePort@port_ptr
  4879                           
  4880                           ;DIO.c: 80:   break ;
  4881  0E18  2E3D               	goto	l4035
  4882  0E19                     l66:	
  4883                           ;DIO.c: 81:         case 4: port_ptr = &PORTE;
  4884                           
  4885  0E19  3000               	movlw	0
  4886  0E1A  00AB               	movwf	Dio_WritePort@port_ptr+1
  4887  0E1B  3009               	movlw	9
  4888  0E1C  00AA               	movwf	Dio_WritePort@port_ptr
  4889                           
  4890                           ;DIO.c: 82:   break ;
  4891  0E1D  2E3D               	goto	l4035
  4892  0E1E                     l4033:
  4893  0E1E  0829               	movf	Dio_WritePort@PortId,w
  4894  0E1F  076E               	addwf	_Dio_configuredPorts,w
  4895  0E20  00A5               	movwf	??_Dio_WritePort
  4896  0E21  0825               	movf	??_Dio_WritePort,w
  4897  0E22  0084               	movwf	4
  4898  0E23  1383               	bcf	3,7	;select IRP bank0
  4899  0E24  0800               	movf	0,w
  4900  0E25  00A6               	movwf	??_Dio_WritePort+1
  4901  0E26  01A7               	clrf	??_Dio_WritePort+2
  4902                           
  4903                           ; Switch on 2 bytes has been partitioned into a top level switch of size 1, and 1 sub-sw
      +                          itches
  4904                           ; Switch size 1, requested type "simple"
  4905                           ; Number of cases is 1, Range of values is 0 to 0
  4906                           ; switch strategies available:
  4907                           ; Name         Instructions Cycles
  4908                           ; simple_byte            4     3 (average)
  4909                           ; direct_byte           11     8 (fixed)
  4910                           ; jumptable            260     6 (fixed)
  4911                           ;	Chosen strategy is simple_byte
  4912  0E27  0827               	movf	??_Dio_WritePort+2,w
  4913  0E28  3A00               	xorlw	0	; case 0
  4914  0E29  1903               	skipnz
  4915  0E2A  2E2C               	goto	l4671
  4916  0E2B  2E3D               	goto	l4035
  4917  0E2C                     l4671:
  4918                           
  4919                           ; Switch size 1, requested type "simple"
  4920                           ; Number of cases is 5, Range of values is 0 to 4
  4921                           ; switch strategies available:
  4922                           ; Name         Instructions Cycles
  4923                           ; simple_byte           16     9 (average)
  4924                           ; direct_byte           23     8 (fixed)
  4925                           ; jumptable            260     6 (fixed)
  4926                           ;	Chosen strategy is simple_byte
  4927  0E2C  0826               	movf	??_Dio_WritePort+1,w
  4928  0E2D  3A00               	xorlw	0	; case 0
  4929  0E2E  1903               	skipnz
  4930  0E2F  2E05               	goto	l61
  4931  0E30  3A01               	xorlw	1	; case 1
  4932  0E31  1903               	skipnz
  4933  0E32  2E0A               	goto	l63
  4934  0E33  3A03               	xorlw	3	; case 2
  4935  0E34  1903               	skipnz
  4936  0E35  2E0F               	goto	l64
  4937  0E36  3A01               	xorlw	1	; case 3
  4938  0E37  1903               	skipnz
  4939  0E38  2E14               	goto	l65
  4940  0E39  3A07               	xorlw	7	; case 4
  4941  0E3A  1903               	skipnz
  4942  0E3B  2E19               	goto	l66
  4943  0E3C  2E3D               	goto	l4035
  4944  0E3D                     l4035:
  4945                           
  4946                           ;DIO.c: 85:   *port_ptr= Level ;
  4947  0E3D  0824               	movf	Dio_WritePort@Level,w
  4948  0E3E  00FF               	movwf	btemp+1
  4949  0E3F  082A               	movf	Dio_WritePort@port_ptr,w
  4950  0E40  0084               	movwf	4
  4951  0E41  1783               	bsf	3,7
  4952  0E42  1C2B               	btfss	Dio_WritePort@port_ptr+1,0
  4953  0E43  1383               	bcf	3,7
  4954  0E44  087F               	movf	btemp+1,w
  4955  0E45  0080               	movwf	0
  4956  0E46                     l68:	
  4957                           ;DIO.c: 86:  }
  4958                           
  4959  0E46  0008               	return
  4960  0E47                     __end_of_Dio_WritePort:
  4961                           
  4962                           	psect	text24
  4963  173A                     __ptext24:	
  4964 ;; *************** function _Disp_turnDiplaysOff *****************
  4965 ;; Defined at:
  4966 ;;		line 67 in file "SSD.c"
  4967 ;; Parameters:    Size  Location     Type
  4968 ;;		None
  4969 ;; Auto vars:     Size  Location     Type
  4970 ;;		None
  4971 ;; Return value:  Size  Location     Type
  4972 ;;                  1    wreg      void 
  4973 ;; Registers used:
  4974 ;;		wreg, status,2, status,0, btemp+1
  4975 ;; Tracked objects:
  4976 ;;		On entry : 0/0
  4977 ;;		On exit  : 0/0
  4978 ;;		Unchanged: 0/0
  4979 ;; Data sizes:     COMMON   BANK0   BANK1   BANK3   BANK2
  4980 ;;      Params:         0       0       0       0       0
  4981 ;;      Locals:         0       0       0       0       0
  4982 ;;      Temps:          0       0       0       0       0
  4983 ;;      Totals:         0       0       0       0       0
  4984 ;;Total ram usage:        0 bytes
  4985 ;; Hardware stack levels used:    1
  4986 ;; Hardware stack levels required when called:    2
  4987 ;; This function calls:
  4988 ;;		Nothing
  4989 ;; This function is called by:
  4990 ;;		_Display_Task
  4991 ;;		_Disp_updateValue_blink
  4992 ;; This function uses a non-reentrant model
  4993 ;;
  4994                           
  4995                           
  4996                           ;psect for function _Disp_turnDiplaysOff
  4997  173A                     _Disp_turnDiplaysOff:
  4998  173A                     l2891:	
  4999                           ;incstack = 0
  5000                           ; Regs used in _Disp_turnDiplaysOff: [wreg+status,2+status,0+btemp+1]
  5001                           
  5002                           
  5003                           ;SSD.c: 68:     (PORTA &= 0xCF );
  5004  173A  30CF               	movlw	207
  5005  173B  00FF               	movwf	btemp+1
  5006  173C  087F               	movf	btemp+1,w
  5007  173D  1283               	bcf	3,5	;RP0=0, select bank0
  5008  173E  1303               	bcf	3,6	;RP1=0, select bank0
  5009  173F  0585               	andwf	5,f	;volatile
  5010  1740                     l460:
  5011  1740  0008               	return
  5012  1741                     __end_of_Disp_turnDiplaysOff:
  5013                           
  5014                           	psect	text25
  5015  08B6                     __ptext25:	
  5016 ;; *************** function _Active_Task *****************
  5017 ;; Defined at:
  5018 ;;		line 118 in file "ElectricWaterHeater.c"
  5019 ;; Parameters:    Size  Location     Type
  5020 ;;		None
  5021 ;; Auto vars:     Size  Location     Type
  5022 ;;		None
  5023 ;; Return value:  Size  Location     Type
  5024 ;;                  1    wreg      void 
  5025 ;; Registers used:
  5026 ;;		wreg, status,2, status,0, btemp+1, pclath, cstack
  5027 ;; Tracked objects:
  5028 ;;		On entry : 0/0
  5029 ;;		On exit  : 0/0
  5030 ;;		Unchanged: 0/0
  5031 ;; Data sizes:     COMMON   BANK0   BANK1   BANK3   BANK2
  5032 ;;      Params:         0       0       0       0       0
  5033 ;;      Locals:         0       0       0       0       0
  5034 ;;      Temps:          0       0       0       0       0
  5035 ;;      Totals:         0       0       0       0       0
  5036 ;;Total ram usage:        0 bytes
  5037 ;; Hardware stack levels used:    1
  5038 ;; Hardware stack levels required when called:    5
  5039 ;; This function calls:
  5040 ;;		_externalEEPROM_writeU8Data
  5041 ;; This function is called by:
  5042 ;;		_Os_sch
  5043 ;; This function uses a non-reentrant model
  5044 ;;
  5045                           
  5046                           
  5047                           ;psect for function _Active_Task
  5048  08B6                     _Active_Task:
  5049  08B6                     l3569:	
  5050                           ;incstack = 0
  5051                           ; Regs used in _Active_Task: [wreg+status,2+status,0+btemp+1+pclath+cstack]
  5052                           
  5053                           
  5054                           ;ElectricWaterHeater.c: 119:     if (g_curr_heater_state == TIME_SETTING_STATE) {
  5055  08B6  1283               	bcf	3,5	;RP0=0, select bank0
  5056  08B7  1303               	bcf	3,6	;RP1=0, select bank0
  5057  08B8  036C               	decf	_g_curr_heater_state,w
  5058  08B9  1D03               	btfss	3,2
  5059  08BA  28BC               	goto	u3901
  5060  08BB  28BD               	goto	u3900
  5061  08BC                     u3901:
  5062  08BC  28CF               	goto	l405
  5063  08BD                     u3900:
  5064  08BD                     l3571:
  5065                           
  5066                           ;ElectricWaterHeater.c: 121:         externalEEPROM_writeU8Data(EWH_TempSettings.g_requi
      +                          red_Temp, (uint8)0xc0);
  5067  08BD  30C0               	movlw	192
  5068  08BE  00FF               	movwf	btemp+1
  5069  08BF  087F               	movf	btemp+1,w
  5070  08C0  00F4               	movwf	externalEEPROM_writeU8Data@Addr
  5071  08C1  1683               	bsf	3,5	;RP0=1, select bank1
  5072  08C2  1303               	bcf	3,6	;RP1=0, select bank1
  5073  08C3  0849               	movf	(_EWH_TempSettings^(0+128)+2),w
  5074  08C4  120A  158A  2122  120A  158A  	fcall	_externalEEPROM_writeU8Data
  5075  08C9                     l3573:
  5076                           
  5077                           ;ElectricWaterHeater.c: 122:         g_curr_heater_state = TEMP_CONTROLLING_STATE;
  5078  08C9  3002               	movlw	2
  5079  08CA  00FF               	movwf	btemp+1
  5080  08CB  087F               	movf	btemp+1,w
  5081  08CC  1283               	bcf	3,5	;RP0=0, select bank0
  5082  08CD  1303               	bcf	3,6	;RP1=0, select bank0
  5083  08CE  00EC               	movwf	_g_curr_heater_state
  5084  08CF                     l405:
  5085  08CF  0008               	return
  5086  08D0                     __end_of_Active_Task:
  5087                           
  5088                           	psect	text26
  5089  0C99                     __ptext26:	
  5090 ;; *************** function _EWH_initTask *****************
  5091 ;; Defined at:
  5092 ;;		line 216 in file "ElectricWaterHeater.c"
  5093 ;; Parameters:    Size  Location     Type
  5094 ;;		None
  5095 ;; Auto vars:     Size  Location     Type
  5096 ;;		None
  5097 ;; Return value:  Size  Location     Type
  5098 ;;                  1    wreg      void 
  5099 ;; Registers used:
  5100 ;;		wreg, fsr0l, fsr0h, status,2, status,0, btemp+1, pclath, cstack
  5101 ;; Tracked objects:
  5102 ;;		On entry : 0/0
  5103 ;;		On exit  : 0/0
  5104 ;;		Unchanged: 0/0
  5105 ;; Data sizes:     COMMON   BANK0   BANK1   BANK3   BANK2
  5106 ;;      Params:         0       0       0       0       0
  5107 ;;      Locals:         0       0       0       0       0
  5108 ;;      Temps:          0       0       0       0       0
  5109 ;;      Totals:         0       0       0       0       0
  5110 ;;Total ram usage:        0 bytes
  5111 ;; Hardware stack levels used:    1
  5112 ;; Hardware stack levels required when called:    5
  5113 ;; This function calls:
  5114 ;;		_Adc_init
  5115 ;;		_Dio_Init
  5116 ;;		_Disp_init
  5117 ;;		_Fan_init
  5118 ;;		_Heater_init
  5119 ;;		_LED_init
  5120 ;;		_LM35_Init
  5121 ;;		_LM35_ReadTemp
  5122 ;;		_SW_init
  5123 ;;		_externalEEPROM_init
  5124 ;;		_externalEEPROM_writeU8Data
  5125 ;; This function is called by:
  5126 ;;		_Os_start
  5127 ;; This function uses a non-reentrant model
  5128 ;;
  5129                           
  5130                           
  5131                           ;psect for function _EWH_initTask
  5132  0C99                     _EWH_initTask:
  5133  0C99                     l4409:	
  5134                           ;incstack = 0
  5135                           ; Regs used in _EWH_initTask: [wreg-fsr0h+status,2+status,0+btemp+1+pclath+cstack]
  5136                           
  5137                           
  5138                           ;ElectricWaterHeater.c: 218:     Dio_Init(&DIO_configuration);
  5139  0C99  30AD               	movlw	(low (_DIO_configuration| 0))& (0+255)
  5140  0C9A  120A  158A  2106  120A  158A  	fcall	_Dio_Init
  5141  0C9F                     l4411:
  5142                           
  5143                           ;ElectricWaterHeater.c: 221:     Adc_init(&Adc_configuration);
  5144  0C9F  3001               	movlw	(low ((_Adc_configuration-__stringbase)| (0+32768)))& (0+255)
  5145  0CA0  120A  158A  24E6  120A  158A  	fcall	_Adc_init
  5146  0CA5                     l4413:
  5147                           
  5148                           ;ElectricWaterHeater.c: 224:     Fan_init();
  5149  0CA5  160A  118A  27BC  120A  158A  	fcall	_Fan_init
  5150  0CAA                     l4415:
  5151                           
  5152                           ;ElectricWaterHeater.c: 225:     Heater_init();
  5153  0CAA  160A  118A  27CD  120A  158A  	fcall	_Heater_init
  5154  0CAF                     l4417:
  5155                           
  5156                           ;ElectricWaterHeater.c: 226:     LM35_Init();
  5157  0CAF  120A  158A  2002  120A  158A  	fcall	_LM35_Init
  5158  0CB4                     l4419:
  5159                           
  5160                           ;ElectricWaterHeater.c: 227:     SW_init();
  5161  0CB4  160A  118A  2733  120A  158A  	fcall	_SW_init
  5162  0CB9                     l4421:
  5163                           
  5164                           ;ElectricWaterHeater.c: 228:     Disp_init();
  5165  0CB9  120A  158A  209E  120A  158A  	fcall	_Disp_init
  5166  0CBE                     l4423:
  5167                           
  5168                           ;ElectricWaterHeater.c: 229:     LED_init();
  5169  0CBE  120A  158A  200E  120A  158A  	fcall	_LED_init
  5170  0CC3                     l4425:
  5171                           
  5172                           ;ElectricWaterHeater.c: 230:     externalEEPROM_init();
  5173  0CC3  160A  118A  272D  120A  158A  	fcall	_externalEEPROM_init
  5174  0CC8                     l4427:
  5175                           
  5176                           ;ElectricWaterHeater.c: 231:     externalEEPROM_writeU8Data(60,(uint8)0xc0);
  5177  0CC8  30C0               	movlw	192
  5178  0CC9  00FF               	movwf	btemp+1
  5179  0CCA  087F               	movf	btemp+1,w
  5180  0CCB  00F4               	movwf	externalEEPROM_writeU8Data@Addr
  5181  0CCC  303C               	movlw	60
  5182  0CCD  120A  158A  2122  120A  158A  	fcall	_externalEEPROM_writeU8Data
  5183  0CD2                     l4429:
  5184                           
  5185                           ;ElectricWaterHeater.c: 236:       EWH_TempSettings.g_required_Temp = 60 ;
  5186  0CD2  303C               	movlw	60
  5187  0CD3  00FF               	movwf	btemp+1
  5188  0CD4  087F               	movf	btemp+1,w
  5189  0CD5  1683               	bsf	3,5	;RP0=1, select bank1
  5190  0CD6  1303               	bcf	3,6	;RP1=0, select bank1
  5191  0CD7  00C9               	movwf	(_EWH_TempSettings^(0+128)+2)
  5192  0CD8                     l4431:
  5193                           
  5194                           ;ElectricWaterHeater.c: 237:     EWH_TempSettings.g_avg_waterTemp = LM35_ReadTemp();
  5195  0CD8  120A  118A  263B  120A  158A  	fcall	_LM35_ReadTemp
  5196  0CDD  1283               	bcf	3,5	;RP0=0, select bank0
  5197  0CDE  1303               	bcf	3,6	;RP1=0, select bank0
  5198  0CDF  0859               	movf	?_LM35_ReadTemp,w
  5199  0CE0  00FF               	movwf	btemp+1
  5200  0CE1  087F               	movf	btemp+1,w
  5201  0CE2  1683               	bsf	3,5	;RP0=1, select bank1
  5202  0CE3  1303               	bcf	3,6	;RP1=0, select bank1
  5203  0CE4  00C7               	movwf	_EWH_TempSettings^(0+128)
  5204  0CE5                     l430:
  5205  0CE5  0008               	return
  5206  0CE6                     __end_of_EWH_initTask:
  5207                           
  5208                           	psect	text27
  5209  0922                     __ptext27:	
  5210 ;; *************** function _externalEEPROM_writeU8Data *****************
  5211 ;; Defined at:
  5212 ;;		line 8 in file "external_eeprom.c"
  5213 ;; Parameters:    Size  Location     Type
  5214 ;;  Data            1    wreg     unsigned char 
  5215 ;;  Addr            1    4[COMMON] unsigned char 
  5216 ;; Auto vars:     Size  Location     Type
  5217 ;;  Data            1    5[COMMON] unsigned char 
  5218 ;; Return value:  Size  Location     Type
  5219 ;;                  1    wreg      void 
  5220 ;; Registers used:
  5221 ;;		wreg, status,2, status,0, pclath, cstack
  5222 ;; Tracked objects:
  5223 ;;		On entry : 0/0
  5224 ;;		On exit  : 0/0
  5225 ;;		Unchanged: 0/0
  5226 ;; Data sizes:     COMMON   BANK0   BANK1   BANK3   BANK2
  5227 ;;      Params:         1       0       0       0       0
  5228 ;;      Locals:         1       0       0       0       0
  5229 ;;      Temps:          0       0       0       0       0
  5230 ;;      Totals:         2       0       0       0       0
  5231 ;;Total ram usage:        2 bytes
  5232 ;; Hardware stack levels used:    1
  5233 ;; Hardware stack levels required when called:    4
  5234 ;; This function calls:
  5235 ;;		_I2C_Start
  5236 ;;		_I2C_Stop
  5237 ;;		_I2C_Write
  5238 ;; This function is called by:
  5239 ;;		_Active_Task
  5240 ;;		_EWH_initTask
  5241 ;; This function uses a non-reentrant model
  5242 ;;
  5243                           
  5244                           
  5245                           ;psect for function _externalEEPROM_writeU8Data
  5246  0922                     _externalEEPROM_writeU8Data:
  5247                           
  5248                           ;incstack = 0
  5249                           ; Regs used in _externalEEPROM_writeU8Data: [wreg+status,2+status,0+pclath+cstack]
  5250                           ;externalEEPROM_writeU8Data@Data stored from wreg
  5251  0922  00F5               	movwf	externalEEPROM_writeU8Data@Data
  5252  0923                     l3397:
  5253                           
  5254                           ;external_eeprom.c: 8: void externalEEPROM_writeU8Data (uint8 Data, uint8 Addr);external
      +                          _eeprom.c: 9: {;external_eeprom.c: 10:     I2C_Start();
  5255  0923  160A  118A  2758  120A  158A  	fcall	_I2C_Start
  5256  0928                     l3399:
  5257                           
  5258                           ;external_eeprom.c: 11:     I2C_Write(0xA0);
  5259  0928  30A0               	movlw	160
  5260  0929  160A  118A  27EF  120A  158A  	fcall	_I2C_Write
  5261  092E                     l3401:
  5262                           
  5263                           ;external_eeprom.c: 12:     I2C_Write(Addr);
  5264  092E  0874               	movf	externalEEPROM_writeU8Data@Addr,w
  5265  092F  160A  118A  27EF  120A  158A  	fcall	_I2C_Write
  5266  0934                     l3403:
  5267                           
  5268                           ;external_eeprom.c: 13:     I2C_Write(Data);
  5269  0934  0875               	movf	externalEEPROM_writeU8Data@Data,w
  5270  0935  160A  118A  27EF  120A  158A  	fcall	_I2C_Write
  5271  093A                     l3405:
  5272                           
  5273                           ;external_eeprom.c: 14:     I2C_Stop();
  5274  093A  160A  118A  2760  120A  158A  	fcall	_I2C_Stop
  5275  093F                     l571:
  5276  093F  0008               	return
  5277  0940                     __end_of_externalEEPROM_writeU8Data:
  5278                           
  5279                           	psect	text28
  5280  17EF                     __ptext28:	
  5281 ;; *************** function _I2C_Write *****************
  5282 ;; Defined at:
  5283 ;;		line 70 in file "i2c.c"
  5284 ;; Parameters:    Size  Location     Type
  5285 ;;  v_i2cData_u8    1    wreg     unsigned char 
  5286 ;; Auto vars:     Size  Location     Type
  5287 ;;  v_i2cData_u8    1    3[COMMON] unsigned char 
  5288 ;; Return value:  Size  Location     Type
  5289 ;;                  1    wreg      void 
  5290 ;; Registers used:
  5291 ;;		wreg, status,2, status,0, pclath, cstack
  5292 ;; Tracked objects:
  5293 ;;		On entry : 0/0
  5294 ;;		On exit  : 0/0
  5295 ;;		Unchanged: 0/0
  5296 ;; Data sizes:     COMMON   BANK0   BANK1   BANK3   BANK2
  5297 ;;      Params:         0       0       0       0       0
  5298 ;;      Locals:         1       0       0       0       0
  5299 ;;      Temps:          0       0       0       0       0
  5300 ;;      Totals:         1       0       0       0       0
  5301 ;;Total ram usage:        1 bytes
  5302 ;; Hardware stack levels used:    1
  5303 ;; Hardware stack levels required when called:    3
  5304 ;; This function calls:
  5305 ;;		_i2c_WaitForIdle
  5306 ;; This function is called by:
  5307 ;;		_externalEEPROM_writeU8Data
  5308 ;;		_externalEEPROM_readU8Data
  5309 ;; This function uses a non-reentrant model
  5310 ;;
  5311                           
  5312                           
  5313                           ;psect for function _I2C_Write
  5314  17EF                     _I2C_Write:
  5315                           
  5316                           ;incstack = 0
  5317                           ; Regs used in _I2C_Write: [wreg+status,2+status,0+pclath+cstack]
  5318                           ;I2C_Write@v_i2cData_u8 stored from wreg
  5319  17EF  00F3               	movwf	I2C_Write@v_i2cData_u8
  5320  17F0                     l2917:
  5321                           
  5322                           ;i2c.c: 70: void I2C_Write(uint8 v_i2cData_u8);i2c.c: 71: {;i2c.c: 73:     SSPBUF = v_i2
      +                          cData_u8;
  5323  17F0  0873               	movf	I2C_Write@v_i2cData_u8,w
  5324  17F1  1283               	bcf	3,5	;RP0=0, select bank0
  5325  17F2  1303               	bcf	3,6	;RP1=0, select bank0
  5326  17F3  0093               	movwf	19	;volatile
  5327  17F4                     l542:	
  5328                           ;i2c.c: 74:     while(BF==1);
  5329                           
  5330  17F4  1683               	bsf	3,5	;RP0=1, select bank1
  5331  17F5  1303               	bcf	3,6	;RP1=0, select bank1
  5332  17F6  1814               	btfsc	20,0	;volatile
  5333  17F7  2FF9               	goto	u2621
  5334  17F8  2FFA               	goto	u2620
  5335  17F9                     u2621:
  5336  17F9  2FF4               	goto	l542
  5337  17FA                     u2620:
  5338  17FA                     l2919:
  5339                           
  5340                           ;i2c.c: 75:     i2c_WaitForIdle();
  5341  17FA  120A  158A  2087  160A  118A  	fcall	_i2c_WaitForIdle
  5342  17FF                     l545:
  5343  17FF  0008               	return
  5344  1800                     __end_of_I2C_Write:
  5345                           
  5346                           	psect	text29
  5347  0887                     __ptext29:	
  5348 ;; *************** function _i2c_WaitForIdle *****************
  5349 ;; Defined at:
  5350 ;;		line 21 in file "i2c.c"
  5351 ;; Parameters:    Size  Location     Type
  5352 ;;		None
  5353 ;; Auto vars:     Size  Location     Type
  5354 ;;		None
  5355 ;; Return value:  Size  Location     Type
  5356 ;;                  1    wreg      void 
  5357 ;; Registers used:
  5358 ;;		None
  5359 ;; Tracked objects:
  5360 ;;		On entry : 0/0
  5361 ;;		On exit  : 0/0
  5362 ;;		Unchanged: 0/0
  5363 ;; Data sizes:     COMMON   BANK0   BANK1   BANK3   BANK2
  5364 ;;      Params:         0       0       0       0       0
  5365 ;;      Locals:         0       0       0       0       0
  5366 ;;      Temps:          0       0       0       0       0
  5367 ;;      Totals:         0       0       0       0       0
  5368 ;;Total ram usage:        0 bytes
  5369 ;; Hardware stack levels used:    1
  5370 ;; Hardware stack levels required when called:    2
  5371 ;; This function calls:
  5372 ;;		Nothing
  5373 ;; This function is called by:
  5374 ;;		_I2C_Write
  5375 ;;		_I2C_Read
  5376 ;; This function uses a non-reentrant model
  5377 ;;
  5378                           
  5379                           
  5380                           ;psect for function _i2c_WaitForIdle
  5381  0887                     _i2c_WaitForIdle:
  5382  0887                     l2731:	
  5383                           ;incstack = 0
  5384                           ; Regs used in _i2c_WaitForIdle: []
  5385                           
  5386  0887                     l503:	
  5387                           ;i2c.c: 23:     while ( (SEN == 1) || (RSEN == 1) || (PEN == 1) || (RCEN == 1) || (R_W =
      +                          = 1) );
  5388                           
  5389  0887  1683               	bsf	3,5	;RP0=1, select bank1
  5390  0888  1303               	bcf	3,6	;RP1=0, select bank1
  5391  0889  1811               	btfsc	17,0	;volatile
  5392  088A  288C               	goto	u2261
  5393  088B  288D               	goto	u2260
  5394  088C                     u2261:
  5395  088C  2887               	goto	l503
  5396  088D                     u2260:
  5397  088D                     l2733:
  5398  088D  1891               	btfsc	17,1	;volatile
  5399  088E  2890               	goto	u2271
  5400  088F  2891               	goto	u2270
  5401  0890                     u2271:
  5402  0890  2887               	goto	l503
  5403  0891                     u2270:
  5404  0891                     l2735:
  5405  0891  1911               	btfsc	17,2	;volatile
  5406  0892  2894               	goto	u2281
  5407  0893  2895               	goto	u2280
  5408  0894                     u2281:
  5409  0894  2887               	goto	l503
  5410  0895                     u2280:
  5411  0895                     l2737:
  5412  0895  1991               	btfsc	17,3	;volatile
  5413  0896  2898               	goto	u2291
  5414  0897  2899               	goto	u2290
  5415  0898                     u2291:
  5416  0898  2887               	goto	l503
  5417  0899                     u2290:
  5418  0899                     l2739:
  5419  0899  1914               	btfsc	20,2	;volatile
  5420  089A  289C               	goto	u2301
  5421  089B  289D               	goto	u2300
  5422  089C                     u2301:
  5423  089C  2887               	goto	l503
  5424  089D                     u2300:
  5425  089D                     l506:
  5426  089D  0008               	return
  5427  089E                     __end_of_i2c_WaitForIdle:
  5428                           
  5429                           	psect	text30
  5430  1760                     __ptext30:	
  5431 ;; *************** function _I2C_Stop *****************
  5432 ;; Defined at:
  5433 ;;		line 63 in file "i2c.c"
  5434 ;; Parameters:    Size  Location     Type
  5435 ;;		None
  5436 ;; Auto vars:     Size  Location     Type
  5437 ;;		None
  5438 ;; Return value:  Size  Location     Type
  5439 ;;                  1    wreg      void 
  5440 ;; Registers used:
  5441 ;;		None
  5442 ;; Tracked objects:
  5443 ;;		On entry : 0/0
  5444 ;;		On exit  : 0/0
  5445 ;;		Unchanged: 0/0
  5446 ;; Data sizes:     COMMON   BANK0   BANK1   BANK3   BANK2
  5447 ;;      Params:         0       0       0       0       0
  5448 ;;      Locals:         0       0       0       0       0
  5449 ;;      Temps:          0       0       0       0       0
  5450 ;;      Totals:         0       0       0       0       0
  5451 ;;Total ram usage:        0 bytes
  5452 ;; Hardware stack levels used:    1
  5453 ;; Hardware stack levels required when called:    2
  5454 ;; This function calls:
  5455 ;;		Nothing
  5456 ;; This function is called by:
  5457 ;;		_externalEEPROM_writeU8Data
  5458 ;;		_externalEEPROM_readU8Data
  5459 ;; This function uses a non-reentrant model
  5460 ;;
  5461                           
  5462                           
  5463                           ;psect for function _I2C_Stop
  5464  1760                     _I2C_Stop:
  5465  1760                     l2915:	
  5466                           ;incstack = 0
  5467                           ; Regs used in _I2C_Stop: []
  5468                           
  5469                           
  5470                           ;i2c.c: 65:  PEN = 1;
  5471  1760  1683               	bsf	3,5	;RP0=1, select bank1
  5472  1761  1303               	bcf	3,6	;RP1=0, select bank1
  5473  1762  1511               	bsf	17,2	;volatile
  5474  1763                     l536:	
  5475                           ;i2c.c: 66:  while(PEN == 1);
  5476                           
  5477  1763  1911               	btfsc	17,2	;volatile
  5478  1764  2F66               	goto	u2611
  5479  1765  2F67               	goto	u2610
  5480  1766                     u2611:
  5481  1766  2F63               	goto	l536
  5482  1767                     u2610:
  5483  1767                     l539:
  5484  1767  0008               	return
  5485  1768                     __end_of_I2C_Stop:
  5486                           
  5487                           	psect	text31
  5488  1758                     __ptext31:	
  5489 ;; *************** function _I2C_Start *****************
  5490 ;; Defined at:
  5491 ;;		line 57 in file "i2c.c"
  5492 ;; Parameters:    Size  Location     Type
  5493 ;;		None
  5494 ;; Auto vars:     Size  Location     Type
  5495 ;;		None
  5496 ;; Return value:  Size  Location     Type
  5497 ;;                  1    wreg      void 
  5498 ;; Registers used:
  5499 ;;		None
  5500 ;; Tracked objects:
  5501 ;;		On entry : 0/0
  5502 ;;		On exit  : 0/0
  5503 ;;		Unchanged: 0/0
  5504 ;; Data sizes:     COMMON   BANK0   BANK1   BANK3   BANK2
  5505 ;;      Params:         0       0       0       0       0
  5506 ;;      Locals:         0       0       0       0       0
  5507 ;;      Temps:          0       0       0       0       0
  5508 ;;      Totals:         0       0       0       0       0
  5509 ;;Total ram usage:        0 bytes
  5510 ;; Hardware stack levels used:    1
  5511 ;; Hardware stack levels required when called:    2
  5512 ;; This function calls:
  5513 ;;		Nothing
  5514 ;; This function is called by:
  5515 ;;		_externalEEPROM_writeU8Data
  5516 ;;		_externalEEPROM_readU8Data
  5517 ;; This function uses a non-reentrant model
  5518 ;;
  5519                           
  5520                           
  5521                           ;psect for function _I2C_Start
  5522  1758                     _I2C_Start:
  5523  1758                     l2913:	
  5524                           ;incstack = 0
  5525                           ; Regs used in _I2C_Start: []
  5526                           
  5527                           
  5528                           ;i2c.c: 59:  SEN = 1;
  5529  1758  1683               	bsf	3,5	;RP0=1, select bank1
  5530  1759  1303               	bcf	3,6	;RP1=0, select bank1
  5531  175A  1411               	bsf	17,0	;volatile
  5532  175B                     l530:	
  5533                           ;i2c.c: 60:  while(SEN == 1);
  5534                           
  5535  175B  1811               	btfsc	17,0	;volatile
  5536  175C  2F5E               	goto	u2601
  5537  175D  2F5F               	goto	u2600
  5538  175E                     u2601:
  5539  175E  2F5B               	goto	l530
  5540  175F                     u2600:
  5541  175F                     l533:
  5542  175F  0008               	return
  5543  1760                     __end_of_I2C_Start:
  5544                           
  5545                           	psect	text32
  5546  172D                     __ptext32:	
  5547 ;; *************** function _externalEEPROM_init *****************
  5548 ;; Defined at:
  5549 ;;		line 4 in file "external_eeprom.c"
  5550 ;; Parameters:    Size  Location     Type
  5551 ;;		None
  5552 ;; Auto vars:     Size  Location     Type
  5553 ;;		None
  5554 ;; Return value:  Size  Location     Type
  5555 ;;                  1    wreg      void 
  5556 ;; Registers used:
  5557 ;;		wreg, status,2, status,0, btemp+1, pclath, cstack
  5558 ;; Tracked objects:
  5559 ;;		On entry : 0/0
  5560 ;;		On exit  : 0/0
  5561 ;;		Unchanged: 0/0
  5562 ;; Data sizes:     COMMON   BANK0   BANK1   BANK3   BANK2
  5563 ;;      Params:         0       0       0       0       0
  5564 ;;      Locals:         0       0       0       0       0
  5565 ;;      Temps:          0       0       0       0       0
  5566 ;;      Totals:         0       0       0       0       0
  5567 ;;Total ram usage:        0 bytes
  5568 ;; Hardware stack levels used:    1
  5569 ;; Hardware stack levels required when called:    4
  5570 ;; This function calls:
  5571 ;;		_I2C_Init
  5572 ;; This function is called by:
  5573 ;;		_EWH_initTask
  5574 ;; This function uses a non-reentrant model
  5575 ;;
  5576                           
  5577                           
  5578                           ;psect for function _externalEEPROM_init
  5579  172D                     _externalEEPROM_init:
  5580  172D                     l3605:	
  5581                           ;incstack = 0
  5582                           ; Regs used in _externalEEPROM_init: [wreg+status,2+status,0+btemp+1+pclath+cstack]
  5583                           
  5584                           
  5585                           ;external_eeprom.c: 6:     I2C_Init();
  5586  172D  160A  118A  27DE  160A  118A  	fcall	_I2C_Init
  5587  1732                     l568:
  5588  1732  0008               	return
  5589  1733                     __end_of_externalEEPROM_init:
  5590                           
  5591                           	psect	text33
  5592  17DE                     __ptext33:	
  5593 ;; *************** function _I2C_Init *****************
  5594 ;; Defined at:
  5595 ;;		line 43 in file "i2c.c"
  5596 ;; Parameters:    Size  Location     Type
  5597 ;;		None
  5598 ;; Auto vars:     Size  Location     Type
  5599 ;;		None
  5600 ;; Return value:  Size  Location     Type
  5601 ;;                  1    wreg      void 
  5602 ;; Registers used:
  5603 ;;		wreg, status,2, status,0, btemp+1, pclath, cstack
  5604 ;; Tracked objects:
  5605 ;;		On entry : 0/0
  5606 ;;		On exit  : 0/0
  5607 ;;		Unchanged: 0/0
  5608 ;; Data sizes:     COMMON   BANK0   BANK1   BANK3   BANK2
  5609 ;;      Params:         0       0       0       0       0
  5610 ;;      Locals:         0       0       0       0       0
  5611 ;;      Temps:          0       0       0       0       0
  5612 ;;      Totals:         0       0       0       0       0
  5613 ;;Total ram usage:        0 bytes
  5614 ;; Hardware stack levels used:    1
  5615 ;; Hardware stack levels required when called:    3
  5616 ;; This function calls:
  5617 ;;		_I2c_setConfigurations
  5618 ;; This function is called by:
  5619 ;;		_externalEEPROM_init
  5620 ;; This function uses a non-reentrant model
  5621 ;;
  5622                           
  5623                           
  5624                           ;psect for function _I2C_Init
  5625  17DE                     _I2C_Init:
  5626  17DE                     l3445:	
  5627                           ;incstack = 0
  5628                           ; Regs used in _I2C_Init: [wreg+status,2+status,0+btemp+1+pclath+cstack]
  5629                           
  5630                           
  5631                           ;i2c.c: 45:     I2c_setConfigurations() ;
  5632  17DE  120A  158A  2070  160A  118A  	fcall	_I2c_setConfigurations
  5633  17E3                     l3447:
  5634                           
  5635                           ;i2c.c: 46:  SSPSTAT |= 0x80;
  5636  17E3  1683               	bsf	3,5	;RP0=1, select bank1
  5637  17E4  1303               	bcf	3,6	;RP1=0, select bank1
  5638  17E5  1794               	bsf	20,7	;volatile
  5639  17E6                     l3449:
  5640                           
  5641                           ;i2c.c: 47:  SSPCON = 0x28;
  5642  17E6  3028               	movlw	40
  5643  17E7  1283               	bcf	3,5	;RP0=0, select bank0
  5644  17E8  1303               	bcf	3,6	;RP1=0, select bank0
  5645  17E9  0094               	movwf	20	;volatile
  5646  17EA                     l3451:
  5647                           
  5648                           ;i2c.c: 48:  SSPADD = 50;
  5649  17EA  3032               	movlw	50
  5650  17EB  1683               	bsf	3,5	;RP0=1, select bank1
  5651  17EC  1303               	bcf	3,6	;RP1=0, select bank1
  5652  17ED  0093               	movwf	19	;volatile
  5653  17EE                     l521:
  5654  17EE  0008               	return
  5655  17EF                     __end_of_I2C_Init:
  5656                           
  5657                           	psect	text34
  5658  0870                     __ptext34:	
  5659 ;; *************** function _I2c_setConfigurations *****************
  5660 ;; Defined at:
  5661 ;;		line 9 in file "i2c.c"
  5662 ;; Parameters:    Size  Location     Type
  5663 ;;		None
  5664 ;; Auto vars:     Size  Location     Type
  5665 ;;		None
  5666 ;; Return value:  Size  Location     Type
  5667 ;;                  1    wreg      void 
  5668 ;; Registers used:
  5669 ;;		wreg, btemp+1
  5670 ;; Tracked objects:
  5671 ;;		On entry : 0/0
  5672 ;;		On exit  : 0/0
  5673 ;;		Unchanged: 0/0
  5674 ;; Data sizes:     COMMON   BANK0   BANK1   BANK3   BANK2
  5675 ;;      Params:         0       0       0       0       0
  5676 ;;      Locals:         0       0       0       0       0
  5677 ;;      Temps:          0       0       0       0       0
  5678 ;;      Totals:         0       0       0       0       0
  5679 ;;Total ram usage:        0 bytes
  5680 ;; Hardware stack levels used:    1
  5681 ;; Hardware stack levels required when called:    2
  5682 ;; This function calls:
  5683 ;;		Nothing
  5684 ;; This function is called by:
  5685 ;;		_I2C_Init
  5686 ;; This function uses a non-reentrant model
  5687 ;;
  5688                           
  5689                           
  5690                           ;psect for function _I2c_setConfigurations
  5691  0870                     _I2c_setConfigurations:
  5692  0870                     l2907:	
  5693                           ;incstack = 0
  5694                           ; Regs used in _I2c_setConfigurations: [wreg+btemp+1]
  5695                           
  5696                           
  5697                           ;i2c.c: 11:     g_SCL_config.port = (uint8)2 ;
  5698  0870  3002               	movlw	2
  5699  0871  00FF               	movwf	btemp+1
  5700  0872  087F               	movf	btemp+1,w
  5701  0873  1683               	bsf	3,5	;RP0=1, select bank1
  5702  0874  1303               	bcf	3,6	;RP1=0, select bank1
  5703  0875  00CF               	movwf	_g_SCL_config^(0+128)
  5704                           
  5705                           ;i2c.c: 12:     g_SCL_config.pin_num = (uint8)3 ;
  5706  0876  3003               	movlw	3
  5707  0877  00FF               	movwf	btemp+1
  5708  0878  087F               	movf	btemp+1,w
  5709  0879  00D0               	movwf	(_g_SCL_config^(0+128)+1)
  5710  087A                     l2909:
  5711                           
  5712                           ;i2c.c: 13:     g_SCL_config.direction = (1U) ;
  5713  087A  01D1               	clrf	(_g_SCL_config^(0+128)+2)
  5714  087B  0AD1               	incf	(_g_SCL_config^(0+128)+2),f
  5715                           
  5716                           ;i2c.c: 15:     g_SDA_config.port = (uint8)2 ;
  5717  087C  3002               	movlw	2
  5718  087D  00FF               	movwf	btemp+1
  5719  087E  087F               	movf	btemp+1,w
  5720  087F  00CC               	movwf	_g_SDA_config^(0+128)
  5721                           
  5722                           ;i2c.c: 16:     g_SDA_config.pin_num = (uint8)4 ;
  5723  0880  3004               	movlw	4
  5724  0881  00FF               	movwf	btemp+1
  5725  0882  087F               	movf	btemp+1,w
  5726  0883  00CD               	movwf	(_g_SDA_config^(0+128)+1)
  5727  0884                     l2911:
  5728                           
  5729                           ;i2c.c: 17:     g_SDA_config.direction = (1U) ;
  5730  0884  01CE               	clrf	(_g_SDA_config^(0+128)+2)
  5731  0885  0ACE               	incf	(_g_SDA_config^(0+128)+2),f
  5732  0886                     l500:
  5733  0886  0008               	return
  5734  0887                     __end_of_I2c_setConfigurations:
  5735                           
  5736                           	psect	text35
  5737  1733                     __ptext35:	
  5738 ;; *************** function _SW_init *****************
  5739 ;; Defined at:
  5740 ;;		line 28 in file "SW.c"
  5741 ;; Parameters:    Size  Location     Type
  5742 ;;		None
  5743 ;; Auto vars:     Size  Location     Type
  5744 ;;		None
  5745 ;; Return value:  Size  Location     Type
  5746 ;;                  1    wreg      void 
  5747 ;; Registers used:
  5748 ;;		wreg, fsr0l, fsr0h, status,2, status,0, btemp+1, pclath, cstack
  5749 ;; Tracked objects:
  5750 ;;		On entry : 0/0
  5751 ;;		On exit  : 0/0
  5752 ;;		Unchanged: 0/0
  5753 ;; Data sizes:     COMMON   BANK0   BANK1   BANK3   BANK2
  5754 ;;      Params:         0       0       0       0       0
  5755 ;;      Locals:         0       0       0       0       0
  5756 ;;      Temps:          0       0       0       0       0
  5757 ;;      Totals:         0       0       0       0       0
  5758 ;;Total ram usage:        0 bytes
  5759 ;; Hardware stack levels used:    1
  5760 ;; Hardware stack levels required when called:    4
  5761 ;; This function calls:
  5762 ;;		_SW_setConfigurations
  5763 ;; This function is called by:
  5764 ;;		_EWH_initTask
  5765 ;; This function uses a non-reentrant model
  5766 ;;
  5767                           
  5768                           
  5769                           ;psect for function _SW_init
  5770  1733                     _SW_init:
  5771  1733                     l4333:	
  5772                           ;incstack = 0
  5773                           ; Regs used in _SW_init: [wreg-fsr0h+status,2+status,0+btemp+1+pclath+cstack]
  5774                           
  5775                           
  5776                           ;SW.c: 29:  SW_setConfigurations(&SW_Configurations);
  5777  1733  30BE               	movlw	(low (_SW_Configurations| 0))& (0+255)
  5778  1734  120A  158A  2230  160A  118A  	fcall	_SW_setConfigurations
  5779  1739                     l234:
  5780  1739  0008               	return
  5781  173A                     __end_of_SW_init:
  5782                           
  5783                           	psect	text36
  5784  0A30                     __ptext36:	
  5785 ;; *************** function _SW_setConfigurations *****************
  5786 ;; Defined at:
  5787 ;;		line 18 in file "SW.c"
  5788 ;; Parameters:    Size  Location     Type
  5789 ;;  config_PTR      1    wreg     PTR struct .
  5790 ;;		 -> SW_Configurations(9), 
  5791 ;; Auto vars:     Size  Location     Type
  5792 ;;  config_PTR      1    0[BANK0 ] PTR struct .
  5793 ;;		 -> SW_Configurations(9), 
  5794 ;;  itr             1    1[BANK0 ] unsigned char 
  5795 ;; Return value:  Size  Location     Type
  5796 ;;                  1    wreg      void 
  5797 ;; Registers used:
  5798 ;;		wreg, fsr0l, fsr0h, status,2, status,0, btemp+1, pclath, cstack
  5799 ;; Tracked objects:
  5800 ;;		On entry : 0/0
  5801 ;;		On exit  : 0/0
  5802 ;;		Unchanged: 0/0
  5803 ;; Data sizes:     COMMON   BANK0   BANK1   BANK3   BANK2
  5804 ;;      Params:         0       0       0       0       0
  5805 ;;      Locals:         0       2       0       0       0
  5806 ;;      Temps:          0       0       0       0       0
  5807 ;;      Totals:         0       2       0       0       0
  5808 ;;Total ram usage:        2 bytes
  5809 ;; Hardware stack levels used:    1
  5810 ;; Hardware stack levels required when called:    3
  5811 ;; This function calls:
  5812 ;;		_Port_SetDirection
  5813 ;;		___bmul
  5814 ;; This function is called by:
  5815 ;;		_SW_init
  5816 ;; This function uses a non-reentrant model
  5817 ;;
  5818                           
  5819                           
  5820                           ;psect for function _SW_setConfigurations
  5821  0A30                     _SW_setConfigurations:
  5822                           
  5823                           ;incstack = 0
  5824                           ; Regs used in _SW_setConfigurations: [wreg-fsr0h+status,2+status,0+btemp+1+pclath+cstac
      +                          k]
  5825                           ;SW_setConfigurations@config_PTR stored from wreg
  5826  0A30  1283               	bcf	3,5	;RP0=0, select bank0
  5827  0A31  1303               	bcf	3,6	;RP1=0, select bank0
  5828  0A32  00A0               	movwf	SW_setConfigurations@config_PTR
  5829  0A33                     l4243:
  5830  0A33                     l4245:
  5831                           
  5832                           ;SW.c: 20:  if (config_PTR != ((void *)0)) {
  5833  0A33  0820               	movf	SW_setConfigurations@config_PTR,w
  5834  0A34  1903               	btfsc	3,2
  5835  0A35  2A37               	goto	u4571
  5836  0A36  2A38               	goto	u4570
  5837  0A37                     u4571:
  5838  0A37  2A5F               	goto	l231
  5839  0A38                     u4570:
  5840  0A38                     l4247:
  5841                           
  5842                           ;SW.c: 21:   g_SW_configs = config_PTR->SW_configured_channels;
  5843  0A38  0820               	movf	SW_setConfigurations@config_PTR,w
  5844  0A39  00FF               	movwf	btemp+1
  5845  0A3A  087F               	movf	btemp+1,w
  5846  0A3B  1683               	bsf	3,5	;RP0=1, select bank1
  5847  0A3C  1303               	bcf	3,6	;RP1=0, select bank1
  5848  0A3D  00D5               	movwf	_g_SW_configs^(0+128)
  5849  0A3E                     l4249:
  5850                           
  5851                           ;SW.c: 22:   for (itr = 0; itr < (3U); itr++) {
  5852  0A3E  1283               	bcf	3,5	;RP0=0, select bank0
  5853  0A3F  1303               	bcf	3,6	;RP1=0, select bank0
  5854  0A40  01A1               	clrf	SW_setConfigurations@itr
  5855  0A41                     l4255:
  5856                           
  5857                           ;SW.c: 23:    Port_SetDirection(&g_SW_configs[itr]);
  5858  0A41  3003               	movlw	3
  5859  0A42  00FF               	movwf	btemp+1
  5860  0A43  087F               	movf	btemp+1,w
  5861  0A44  00F3               	movwf	___bmul@multiplicand
  5862  0A45  0821               	movf	SW_setConfigurations@itr,w
  5863  0A46  120A  158A  205B  120A  158A  	fcall	___bmul
  5864  0A4B  1683               	bsf	3,5	;RP0=1, select bank1
  5865  0A4C  1303               	bcf	3,6	;RP1=0, select bank1
  5866  0A4D  0755               	addwf	_g_SW_configs^(0+128),w
  5867  0A4E  120A  158A  278C  120A  158A  	fcall	_Port_SetDirection
  5868  0A53                     l4257:
  5869                           
  5870                           ;SW.c: 24:   }
  5871  0A53  3001               	movlw	1
  5872  0A54  00FF               	movwf	btemp+1
  5873  0A55  087F               	movf	btemp+1,w
  5874  0A56  1283               	bcf	3,5	;RP0=0, select bank0
  5875  0A57  1303               	bcf	3,6	;RP1=0, select bank0
  5876  0A58  07A1               	addwf	SW_setConfigurations@itr,f
  5877  0A59                     l4259:
  5878  0A59  3003               	movlw	3
  5879  0A5A  0221               	subwf	SW_setConfigurations@itr,w
  5880  0A5B  1C03               	skipc
  5881  0A5C  2A5E               	goto	u4581
  5882  0A5D  2A5F               	goto	u4580
  5883  0A5E                     u4581:
  5884  0A5E  2A41               	goto	l4255
  5885  0A5F                     u4580:
  5886  0A5F                     l231:
  5887  0A5F  0008               	return
  5888  0A60                     __end_of_SW_setConfigurations:
  5889                           
  5890                           	psect	text37
  5891  085B                     __ptext37:	
  5892 ;; *************** function ___bmul *****************
  5893 ;; Defined at:
  5894 ;;		line 4 in file "C:\Program Files\Microchip\xc8\v2.20\pic\sources\c90\common\Umul8.c"
  5895 ;; Parameters:    Size  Location     Type
  5896 ;;  multiplier      1    wreg     unsigned char 
  5897 ;;  multiplicand    1    3[COMMON] unsigned char 
  5898 ;; Auto vars:     Size  Location     Type
  5899 ;;  multiplier      1    5[COMMON] unsigned char 
  5900 ;;  product         1    4[COMMON] unsigned char 
  5901 ;; Return value:  Size  Location     Type
  5902 ;;                  1    wreg      unsigned char 
  5903 ;; Registers used:
  5904 ;;		wreg, status,2, status,0, btemp+1
  5905 ;; Tracked objects:
  5906 ;;		On entry : 0/0
  5907 ;;		On exit  : 0/0
  5908 ;;		Unchanged: 0/0
  5909 ;; Data sizes:     COMMON   BANK0   BANK1   BANK3   BANK2
  5910 ;;      Params:         1       0       0       0       0
  5911 ;;      Locals:         2       0       0       0       0
  5912 ;;      Temps:          0       0       0       0       0
  5913 ;;      Totals:         3       0       0       0       0
  5914 ;;Total ram usage:        3 bytes
  5915 ;; Hardware stack levels used:    1
  5916 ;; Hardware stack levels required when called:    2
  5917 ;; This function calls:
  5918 ;;		Nothing
  5919 ;; This function is called by:
  5920 ;;		_SW_setConfigurations
  5921 ;; This function uses a non-reentrant model
  5922 ;;
  5923                           
  5924                           
  5925                           ;psect for function ___bmul
  5926  085B                     ___bmul:
  5927                           
  5928                           ;incstack = 0
  5929                           ; Regs used in ___bmul: [wreg+status,2+status,0+btemp+1]
  5930                           ;___bmul@multiplier stored from wreg
  5931  085B  00F5               	movwf	___bmul@multiplier
  5932  085C                     l2921:
  5933  085C  01F4               	clrf	___bmul@product
  5934  085D                     l2923:
  5935  085D  1C75               	btfss	___bmul@multiplier,0
  5936  085E  2860               	goto	u2631
  5937  085F  2861               	goto	u2630
  5938  0860                     u2631:
  5939  0860  2865               	goto	l2927
  5940  0861                     u2630:
  5941  0861                     l2925:
  5942  0861  0873               	movf	___bmul@multiplicand,w
  5943  0862  00FF               	movwf	btemp+1
  5944  0863  087F               	movf	btemp+1,w
  5945  0864  07F4               	addwf	___bmul@product,f
  5946  0865                     l2927:
  5947  0865  1003               	clrc
  5948  0866  0DF3               	rlf	___bmul@multiplicand,f
  5949  0867                     l2929:
  5950  0867  1003               	clrc
  5951  0868  0CF5               	rrf	___bmul@multiplier,f
  5952  0869                     l2931:
  5953  0869  0875               	movf	___bmul@multiplier,w
  5954  086A  1D03               	btfss	3,2
  5955  086B  286D               	goto	u2641
  5956  086C  286E               	goto	u2640
  5957  086D                     u2641:
  5958  086D  285D               	goto	l2923
  5959  086E                     u2640:
  5960  086E                     l2933:
  5961  086E  0874               	movf	___bmul@product,w
  5962  086F                     l765:
  5963  086F  0008               	return
  5964  0870                     __end_of___bmul:
  5965                           
  5966                           	psect	text38
  5967  063B                     __ptext38:	
  5968 ;; *************** function _LM35_ReadTemp *****************
  5969 ;; Defined at:
  5970 ;;		line 27 in file "LM35.c"
  5971 ;; Parameters:    Size  Location     Type
  5972 ;;		None
  5973 ;; Auto vars:     Size  Location     Type
  5974 ;;  volt            4   69[BANK0 ] float 
  5975 ;;  dig             4   63[BANK0 ] float 
  5976 ;;  temp            2   67[BANK0 ] unsigned short 
  5977 ;; Return value:  Size  Location     Type
  5978 ;;                  2   57[BANK0 ] unsigned short 
  5979 ;; Registers used:
  5980 ;;		wreg, status,2, status,0, btemp+1, pclath, cstack
  5981 ;; Tracked objects:
  5982 ;;		On entry : 0/0
  5983 ;;		On exit  : 0/0
  5984 ;;		Unchanged: 0/0
  5985 ;; Data sizes:     COMMON   BANK0   BANK1   BANK3   BANK2
  5986 ;;      Params:         0       2       0       0       0
  5987 ;;      Locals:         0      10       0       0       0
  5988 ;;      Temps:          0       4       0       0       0
  5989 ;;      Totals:         0      16       0       0       0
  5990 ;;Total ram usage:       16 bytes
  5991 ;; Hardware stack levels used:    1
  5992 ;; Hardware stack levels required when called:    4
  5993 ;; This function calls:
  5994 ;;		_Adc_readChannel
  5995 ;;		___fldiv
  5996 ;;		___flmul
  5997 ;;		___fltol
  5998 ;;		___xxtofl
  5999 ;; This function is called by:
  6000 ;;		_TempSensing_Task
  6001 ;;		_EWH_initTask
  6002 ;; This function uses a non-reentrant model
  6003 ;;
  6004                           
  6005                           
  6006                           ;psect for function _LM35_ReadTemp
  6007  063B                     _LM35_ReadTemp:
  6008  063B                     l4237:	
  6009                           ;incstack = 0
  6010                           ; Regs used in _LM35_ReadTemp: [wreg+status,2+status,0+btemp+1+pclath+cstack]
  6011                           
  6012                           
  6013                           ;LM35.c: 29:  uint16 temp;;LM35.c: 30:  float dig;;LM35.c: 31:  float volt;;LM35.c: 32: 
      +                           dig = Adc_readChannel(2) ;
  6014  063B  3002               	movlw	2
  6015  063C  120A  158A  22D0  120A  118A  	fcall	_Adc_readChannel
  6016  0641  0873               	movf	?_Adc_readChannel,w
  6017  0642  1283               	bcf	3,5	;RP0=0, select bank0
  6018  0643  1303               	bcf	3,6	;RP1=0, select bank0
  6019  0644  00DB               	movwf	??_LM35_ReadTemp
  6020  0645  0874               	movf	?_Adc_readChannel+1,w
  6021  0646  00DC               	movwf	??_LM35_ReadTemp+1
  6022  0647  01DD               	clrf	??_LM35_ReadTemp+2
  6023  0648  01DE               	clrf	??_LM35_ReadTemp+3
  6024  0649  085E               	movf	??_LM35_ReadTemp+3,w
  6025  064A  00A6               	movwf	___xxtofl@val+3
  6026  064B  085D               	movf	??_LM35_ReadTemp+2,w
  6027  064C  00A5               	movwf	___xxtofl@val+2
  6028  064D  085C               	movf	??_LM35_ReadTemp+1,w
  6029  064E  00A4               	movwf	___xxtofl@val+1
  6030  064F  085B               	movf	??_LM35_ReadTemp,w
  6031  0650  00A3               	movwf	___xxtofl@val
  6032  0651  3000               	movlw	0
  6033  0652  120A  118A  257F  120A  118A  	fcall	___xxtofl
  6034  0657  1283               	bcf	3,5	;RP0=0, select bank0
  6035  0658  1303               	bcf	3,6	;RP1=0, select bank0
  6036  0659  0826               	movf	?___xxtofl+3,w
  6037  065A  00E2               	movwf	LM35_ReadTemp@dig+3
  6038  065B  0825               	movf	?___xxtofl+2,w
  6039  065C  00E1               	movwf	LM35_ReadTemp@dig+2
  6040  065D  0824               	movf	?___xxtofl+1,w
  6041  065E  00E0               	movwf	LM35_ReadTemp@dig+1
  6042  065F  0823               	movf	?___xxtofl,w
  6043  0660  00DF               	movwf	LM35_ReadTemp@dig
  6044                           
  6045                           ;LM35.c: 33:  volt = (dig * 5) / 1023;
  6046  0661  3044               	movlw	68
  6047  0662  00C2               	movwf	___fldiv@a+3
  6048  0663  307F               	movlw	127
  6049  0664  00C1               	movwf	___fldiv@a+2
  6050  0665  30C0               	movlw	192
  6051  0666  00C0               	movwf	___fldiv@a+1
  6052  0667  3000               	movlw	0
  6053  0668  00BF               	movwf	___fldiv@a
  6054  0669  3040               	movlw	64
  6055  066A  00A8               	movwf	___flmul@b+3
  6056  066B  30A0               	movlw	160
  6057  066C  00A7               	movwf	___flmul@b+2
  6058  066D  3000               	movlw	0
  6059  066E  00A6               	movwf	___flmul@b+1
  6060  066F  3000               	movlw	0
  6061  0670  00A5               	movwf	___flmul@b
  6062  0671  0862               	movf	LM35_ReadTemp@dig+3,w
  6063  0672  00AC               	movwf	___flmul@a+3
  6064  0673  0861               	movf	LM35_ReadTemp@dig+2,w
  6065  0674  00AB               	movwf	___flmul@a+2
  6066  0675  0860               	movf	LM35_ReadTemp@dig+1,w
  6067  0676  00AA               	movwf	___flmul@a+1
  6068  0677  085F               	movf	LM35_ReadTemp@dig,w
  6069  0678  00A9               	movwf	___flmul@a
  6070  0679  120A  118A  2041  120A  118A  	fcall	___flmul
  6071  067E  1283               	bcf	3,5	;RP0=0, select bank0
  6072  067F  1303               	bcf	3,6	;RP1=0, select bank0
  6073  0680  0828               	movf	?___flmul+3,w
  6074  0681  00C6               	movwf	___fldiv@b+3
  6075  0682  0827               	movf	?___flmul+2,w
  6076  0683  00C5               	movwf	___fldiv@b+2
  6077  0684  0826               	movf	?___flmul+1,w
  6078  0685  00C4               	movwf	___fldiv@b+1
  6079  0686  0825               	movf	?___flmul,w
  6080  0687  00C3               	movwf	___fldiv@b
  6081  0688  120A  118A  23A2  120A  118A  	fcall	___fldiv
  6082  068D  1283               	bcf	3,5	;RP0=0, select bank0
  6083  068E  1303               	bcf	3,6	;RP1=0, select bank0
  6084  068F  0842               	movf	?___fldiv+3,w
  6085  0690  00E8               	movwf	LM35_ReadTemp@volt+3
  6086  0691  0841               	movf	?___fldiv+2,w
  6087  0692  00E7               	movwf	LM35_ReadTemp@volt+2
  6088  0693  0840               	movf	?___fldiv+1,w
  6089  0694  00E6               	movwf	LM35_ReadTemp@volt+1
  6090  0695  083F               	movf	?___fldiv,w
  6091  0696  00E5               	movwf	LM35_ReadTemp@volt
  6092                           
  6093                           ;LM35.c: 34:  volt = (volt) / 10;
  6094  0697  3041               	movlw	65
  6095  0698  00C2               	movwf	___fldiv@a+3
  6096  0699  3020               	movlw	32
  6097  069A  00C1               	movwf	___fldiv@a+2
  6098  069B  3000               	movlw	0
  6099  069C  00C0               	movwf	___fldiv@a+1
  6100  069D  3000               	movlw	0
  6101  069E  00BF               	movwf	___fldiv@a
  6102  069F  0868               	movf	LM35_ReadTemp@volt+3,w
  6103  06A0  00C6               	movwf	___fldiv@b+3
  6104  06A1  0867               	movf	LM35_ReadTemp@volt+2,w
  6105  06A2  00C5               	movwf	___fldiv@b+2
  6106  06A3  0866               	movf	LM35_ReadTemp@volt+1,w
  6107  06A4  00C4               	movwf	___fldiv@b+1
  6108  06A5  0865               	movf	LM35_ReadTemp@volt,w
  6109  06A6  00C3               	movwf	___fldiv@b
  6110  06A7  120A  118A  23A2  120A  118A  	fcall	___fldiv
  6111  06AC  1283               	bcf	3,5	;RP0=0, select bank0
  6112  06AD  1303               	bcf	3,6	;RP1=0, select bank0
  6113  06AE  0842               	movf	?___fldiv+3,w
  6114  06AF  00E8               	movwf	LM35_ReadTemp@volt+3
  6115  06B0  0841               	movf	?___fldiv+2,w
  6116  06B1  00E7               	movwf	LM35_ReadTemp@volt+2
  6117  06B2  0840               	movf	?___fldiv+1,w
  6118  06B3  00E6               	movwf	LM35_ReadTemp@volt+1
  6119  06B4  083F               	movf	?___fldiv,w
  6120  06B5  00E5               	movwf	LM35_ReadTemp@volt
  6121                           
  6122                           ;LM35.c: 35:  temp = volt * 1000;
  6123  06B6  0868               	movf	LM35_ReadTemp@volt+3,w
  6124  06B7  00AC               	movwf	___flmul@a+3
  6125  06B8  0867               	movf	LM35_ReadTemp@volt+2,w
  6126  06B9  00AB               	movwf	___flmul@a+2
  6127  06BA  0866               	movf	LM35_ReadTemp@volt+1,w
  6128  06BB  00AA               	movwf	___flmul@a+1
  6129  06BC  0865               	movf	LM35_ReadTemp@volt,w
  6130  06BD  00A9               	movwf	___flmul@a
  6131  06BE  3044               	movlw	68
  6132  06BF  00A8               	movwf	___flmul@b+3
  6133  06C0  307A               	movlw	122
  6134  06C1  00A7               	movwf	___flmul@b+2
  6135  06C2  3000               	movlw	0
  6136  06C3  00A6               	movwf	___flmul@b+1
  6137  06C4  3000               	movlw	0
  6138  06C5  00A5               	movwf	___flmul@b
  6139  06C6  120A  118A  2041  120A  118A  	fcall	___flmul
  6140  06CB  1283               	bcf	3,5	;RP0=0, select bank0
  6141  06CC  1303               	bcf	3,6	;RP1=0, select bank0
  6142  06CD  0828               	movf	?___flmul+3,w
  6143  06CE  00C2               	movwf	___fltol@f1+3
  6144  06CF  0827               	movf	?___flmul+2,w
  6145  06D0  00C1               	movwf	___fltol@f1+2
  6146  06D1  0826               	movf	?___flmul+1,w
  6147  06D2  00C0               	movwf	___fltol@f1+1
  6148  06D3  0825               	movf	?___flmul,w
  6149  06D4  00BF               	movwf	___fltol@f1
  6150  06D5  120A  118A  277A  120A  118A  	fcall	___fltol
  6151  06DA  1283               	bcf	3,5	;RP0=0, select bank0
  6152  06DB  1303               	bcf	3,6	;RP1=0, select bank0
  6153  06DC  0840               	movf	?___fltol+1,w
  6154  06DD  00E4               	movwf	LM35_ReadTemp@temp+1
  6155  06DE  083F               	movf	?___fltol,w
  6156  06DF  00E3               	movwf	LM35_ReadTemp@temp
  6157  06E0                     l4239:
  6158                           
  6159                           ;LM35.c: 36:  return temp;
  6160  06E0  0864               	movf	LM35_ReadTemp@temp+1,w
  6161  06E1  00DA               	movwf	?_LM35_ReadTemp+1
  6162  06E2  0863               	movf	LM35_ReadTemp@temp,w
  6163  06E3  00D9               	movwf	?_LM35_ReadTemp
  6164  06E4                     l177:
  6165  06E4  0008               	return
  6166  06E5                     __end_of_LM35_ReadTemp:
  6167                           
  6168                           	psect	text39
  6169  057F                     __ptext39:	
  6170 ;; *************** function ___xxtofl *****************
  6171 ;; Defined at:
  6172 ;;		line 10 in file "C:\Program Files\Microchip\xc8\v2.20\pic\sources\c90\common\xxtofl.c"
  6173 ;; Parameters:    Size  Location     Type
  6174 ;;  sign            1    wreg     unsigned char 
  6175 ;;  val             4    3[BANK0 ] long 
  6176 ;; Auto vars:     Size  Location     Type
  6177 ;;  sign            1   11[BANK0 ] unsigned char 
  6178 ;;  arg             4   13[BANK0 ] unsigned long 
  6179 ;;  exp             1   12[BANK0 ] unsigned char 
  6180 ;; Return value:  Size  Location     Type
  6181 ;;                  4    3[BANK0 ] unsigned char 
  6182 ;; Registers used:
  6183 ;;		wreg, status,2, status,0, btemp+1
  6184 ;; Tracked objects:
  6185 ;;		On entry : 0/0
  6186 ;;		On exit  : 0/0
  6187 ;;		Unchanged: 0/0
  6188 ;; Data sizes:     COMMON   BANK0   BANK1   BANK3   BANK2
  6189 ;;      Params:         0       4       0       0       0
  6190 ;;      Locals:         0       6       0       0       0
  6191 ;;      Temps:          0       4       0       0       0
  6192 ;;      Totals:         0      14       0       0       0
  6193 ;;Total ram usage:       14 bytes
  6194 ;; Hardware stack levels used:    1
  6195 ;; Hardware stack levels required when called:    2
  6196 ;; This function calls:
  6197 ;;		Nothing
  6198 ;; This function is called by:
  6199 ;;		_LM35_ReadTemp
  6200 ;; This function uses a non-reentrant model
  6201 ;;
  6202                           
  6203                           
  6204                           ;psect for function ___xxtofl
  6205  057F                     ___xxtofl:
  6206                           
  6207                           ;incstack = 0
  6208                           ; Regs used in ___xxtofl: [wreg+status,2+status,0+btemp+1]
  6209                           ;___xxtofl@sign stored from wreg
  6210  057F  1283               	bcf	3,5	;RP0=0, select bank0
  6211  0580  1303               	bcf	3,6	;RP1=0, select bank0
  6212  0581  00AB               	movwf	___xxtofl@sign
  6213  0582                     l3261:
  6214  0582  082B               	movf	___xxtofl@sign,w
  6215  0583  1903               	btfsc	3,2
  6216  0584  2D86               	goto	u3411
  6217  0585  2D87               	goto	u3410
  6218  0586                     u3411:
  6219  0586  2D9B               	goto	l3267
  6220  0587                     u3410:
  6221  0587                     l3263:
  6222  0587  1FA6               	btfss	___xxtofl@val+3,7
  6223  0588  2D8A               	goto	u3421
  6224  0589  2D8B               	goto	u3420
  6225  058A                     u3421:
  6226  058A  2D9B               	goto	l3267
  6227  058B                     u3420:
  6228  058B                     l3265:
  6229  058B  0923               	comf	___xxtofl@val,w
  6230  058C  00AD               	movwf	___xxtofl@arg
  6231  058D  0924               	comf	___xxtofl@val+1,w
  6232  058E  00AE               	movwf	___xxtofl@arg+1
  6233  058F  0925               	comf	___xxtofl@val+2,w
  6234  0590  00AF               	movwf	___xxtofl@arg+2
  6235  0591  0926               	comf	___xxtofl@val+3,w
  6236  0592  00B0               	movwf	___xxtofl@arg+3
  6237  0593  0AAD               	incf	___xxtofl@arg,f
  6238  0594  1903               	skipnz
  6239  0595  0AAE               	incf	___xxtofl@arg+1,f
  6240  0596  1903               	skipnz
  6241  0597  0AAF               	incf	___xxtofl@arg+2,f
  6242  0598  1903               	skipnz
  6243  0599  0AB0               	incf	___xxtofl@arg+3,f
  6244  059A  2DA3               	goto	l1172
  6245  059B                     l3267:
  6246  059B  0826               	movf	___xxtofl@val+3,w
  6247  059C  00B0               	movwf	___xxtofl@arg+3
  6248  059D  0825               	movf	___xxtofl@val+2,w
  6249  059E  00AF               	movwf	___xxtofl@arg+2
  6250  059F  0824               	movf	___xxtofl@val+1,w
  6251  05A0  00AE               	movwf	___xxtofl@arg+1
  6252  05A1  0823               	movf	___xxtofl@val,w
  6253  05A2  00AD               	movwf	___xxtofl@arg
  6254  05A3                     l1172:
  6255  05A3  0826               	movf	___xxtofl@val+3,w
  6256  05A4  0425               	iorwf	___xxtofl@val+2,w
  6257  05A5  0424               	iorwf	___xxtofl@val+1,w
  6258  05A6  0423               	iorwf	___xxtofl@val,w
  6259  05A7  1D03               	skipz
  6260  05A8  2DAA               	goto	u3431
  6261  05A9  2DAB               	goto	u3430
  6262  05AA                     u3431:
  6263  05AA  2DB4               	goto	l3273
  6264  05AB                     u3430:
  6265  05AB                     l3269:
  6266  05AB  3000               	movlw	0
  6267  05AC  00A6               	movwf	?___xxtofl+3
  6268  05AD  3000               	movlw	0
  6269  05AE  00A5               	movwf	?___xxtofl+2
  6270  05AF  3000               	movlw	0
  6271  05B0  00A4               	movwf	?___xxtofl+1
  6272  05B1  3000               	movlw	0
  6273  05B2  00A3               	movwf	?___xxtofl
  6274  05B3  2E3A               	goto	l1174
  6275  05B4                     l3273:
  6276  05B4  3096               	movlw	150
  6277  05B5  00FF               	movwf	btemp+1
  6278  05B6  087F               	movf	btemp+1,w
  6279  05B7  00AC               	movwf	___xxtofl@exp
  6280  05B8  2DC6               	goto	l3279
  6281  05B9                     l3275:
  6282  05B9  3001               	movlw	1
  6283  05BA  00FF               	movwf	btemp+1
  6284  05BB  087F               	movf	btemp+1,w
  6285  05BC  07AC               	addwf	___xxtofl@exp,f
  6286  05BD                     l3277:
  6287  05BD  3001               	movlw	1
  6288  05BE                     u3445:
  6289  05BE  1003               	clrc
  6290  05BF  0CB0               	rrf	___xxtofl@arg+3,f
  6291  05C0  0CAF               	rrf	___xxtofl@arg+2,f
  6292  05C1  0CAE               	rrf	___xxtofl@arg+1,f
  6293  05C2  0CAD               	rrf	___xxtofl@arg,f
  6294  05C3  3EFF               	addlw	-1
  6295  05C4  1D03               	skipz
  6296  05C5  2DBE               	goto	u3445
  6297  05C6                     l3279:
  6298  05C6  30FE               	movlw	254
  6299  05C7  0530               	andwf	___xxtofl@arg+3,w
  6300  05C8  1D03               	btfss	3,2
  6301  05C9  2DCB               	goto	u3451
  6302  05CA  2DCC               	goto	u3450
  6303  05CB                     u3451:
  6304  05CB  2DB9               	goto	l3275
  6305  05CC                     u3450:
  6306  05CC  2DE8               	goto	l3287
  6307  05CD                     l3281:
  6308  05CD  3001               	movlw	1
  6309  05CE  00FF               	movwf	btemp+1
  6310  05CF  087F               	movf	btemp+1,w
  6311  05D0  07AC               	addwf	___xxtofl@exp,f
  6312  05D1                     l3283:
  6313  05D1  3001               	movlw	1
  6314  05D2  07AD               	addwf	___xxtofl@arg,f
  6315  05D3  3000               	movlw	0
  6316  05D4  1803               	skipnc
  6317  05D5  3001               	movlw	1
  6318  05D6  07AE               	addwf	___xxtofl@arg+1,f
  6319  05D7  3000               	movlw	0
  6320  05D8  1803               	skipnc
  6321  05D9  3001               	movlw	1
  6322  05DA  07AF               	addwf	___xxtofl@arg+2,f
  6323  05DB  3000               	movlw	0
  6324  05DC  1803               	skipnc
  6325  05DD  3001               	movlw	1
  6326  05DE  07B0               	addwf	___xxtofl@arg+3,f
  6327  05DF                     l3285:
  6328  05DF  3001               	movlw	1
  6329  05E0                     u3465:
  6330  05E0  1003               	clrc
  6331  05E1  0CB0               	rrf	___xxtofl@arg+3,f
  6332  05E2  0CAF               	rrf	___xxtofl@arg+2,f
  6333  05E3  0CAE               	rrf	___xxtofl@arg+1,f
  6334  05E4  0CAD               	rrf	___xxtofl@arg,f
  6335  05E5  3EFF               	addlw	-1
  6336  05E6  1D03               	skipz
  6337  05E7  2DE0               	goto	u3465
  6338  05E8                     l3287:
  6339  05E8  30FF               	movlw	255
  6340  05E9  0530               	andwf	___xxtofl@arg+3,w
  6341  05EA  1D03               	btfss	3,2
  6342  05EB  2DED               	goto	u3471
  6343  05EC  2DEE               	goto	u3470
  6344  05ED                     u3471:
  6345  05ED  2DCD               	goto	l3281
  6346  05EE                     u3470:
  6347  05EE  2DFA               	goto	l3291
  6348  05EF                     l3289:
  6349  05EF  3001               	movlw	1
  6350  05F0  02AC               	subwf	___xxtofl@exp,f
  6351  05F1  3001               	movlw	1
  6352  05F2  00A7               	movwf	??___xxtofl
  6353  05F3                     u3485:
  6354  05F3  1003               	clrc
  6355  05F4  0DAD               	rlf	___xxtofl@arg,f
  6356  05F5  0DAE               	rlf	___xxtofl@arg+1,f
  6357  05F6  0DAF               	rlf	___xxtofl@arg+2,f
  6358  05F7  0DB0               	rlf	___xxtofl@arg+3,f
  6359  05F8  0BA7               	decfsz	??___xxtofl,f
  6360  05F9  2DF3               	goto	u3485
  6361  05FA                     l3291:
  6362  05FA  1BAF               	btfsc	___xxtofl@arg+2,7
  6363  05FB  2DFD               	goto	u3491
  6364  05FC  2DFE               	goto	u3490
  6365  05FD                     u3491:
  6366  05FD  2E04               	goto	l1185
  6367  05FE                     u3490:
  6368  05FE                     l3293:
  6369  05FE  3002               	movlw	2
  6370  05FF  022C               	subwf	___xxtofl@exp,w
  6371  0600  1803               	skipnc
  6372  0601  2E03               	goto	u3501
  6373  0602  2E04               	goto	u3500
  6374  0603                     u3501:
  6375  0603  2DEF               	goto	l3289
  6376  0604                     u3500:
  6377  0604                     l1185:
  6378  0604  182C               	btfsc	___xxtofl@exp,0
  6379  0605  2E07               	goto	u3511
  6380  0606  2E08               	goto	u3510
  6381  0607                     u3511:
  6382  0607  2E10               	goto	l1186
  6383  0608                     u3510:
  6384  0608                     l3295:
  6385  0608  30FF               	movlw	255
  6386  0609  05AD               	andwf	___xxtofl@arg,f
  6387  060A  30FF               	movlw	255
  6388  060B  05AE               	andwf	___xxtofl@arg+1,f
  6389  060C  307F               	movlw	127
  6390  060D  05AF               	andwf	___xxtofl@arg+2,f
  6391  060E  30FF               	movlw	255
  6392  060F  05B0               	andwf	___xxtofl@arg+3,f
  6393  0610                     l1186:
  6394  0610  1003               	clrc
  6395  0611  0CAC               	rrf	___xxtofl@exp,f
  6396  0612                     l3297:
  6397  0612  082C               	movf	___xxtofl@exp,w
  6398  0613  00A7               	movwf	??___xxtofl
  6399  0614  01A8               	clrf	??___xxtofl+1
  6400  0615  01A9               	clrf	??___xxtofl+2
  6401  0616  01AA               	clrf	??___xxtofl+3
  6402  0617  3018               	movlw	24
  6403  0618                     u3525:
  6404  0618  1003               	clrc
  6405  0619  0DA7               	rlf	??___xxtofl,f
  6406  061A  0DA8               	rlf	??___xxtofl+1,f
  6407  061B  0DA9               	rlf	??___xxtofl+2,f
  6408  061C  0DAA               	rlf	??___xxtofl+3,f
  6409  061D                     u3520:
  6410  061D  3EFF               	addlw	-1
  6411  061E  1D03               	skipz
  6412  061F  2E18               	goto	u3525
  6413  0620  0827               	movf	??___xxtofl,w
  6414  0621  04AD               	iorwf	___xxtofl@arg,f
  6415  0622  0828               	movf	??___xxtofl+1,w
  6416  0623  04AE               	iorwf	___xxtofl@arg+1,f
  6417  0624  0829               	movf	??___xxtofl+2,w
  6418  0625  04AF               	iorwf	___xxtofl@arg+2,f
  6419  0626  082A               	movf	??___xxtofl+3,w
  6420  0627  04B0               	iorwf	___xxtofl@arg+3,f
  6421  0628                     l3299:
  6422  0628  082B               	movf	___xxtofl@sign,w
  6423  0629  1903               	btfsc	3,2
  6424  062A  2E2C               	goto	u3531
  6425  062B  2E2D               	goto	u3530
  6426  062C                     u3531:
  6427  062C  2E32               	goto	l3305
  6428  062D                     u3530:
  6429  062D                     l3301:
  6430  062D  1FA6               	btfss	___xxtofl@val+3,7
  6431  062E  2E30               	goto	u3541
  6432  062F  2E31               	goto	u3540
  6433  0630                     u3541:
  6434  0630  2E32               	goto	l3305
  6435  0631                     u3540:
  6436  0631                     l3303:
  6437  0631  17B0               	bsf	___xxtofl@arg+3,7
  6438  0632                     l3305:
  6439  0632  0830               	movf	___xxtofl@arg+3,w
  6440  0633  00A6               	movwf	?___xxtofl+3
  6441  0634  082F               	movf	___xxtofl@arg+2,w
  6442  0635  00A5               	movwf	?___xxtofl+2
  6443  0636  082E               	movf	___xxtofl@arg+1,w
  6444  0637  00A4               	movwf	?___xxtofl+1
  6445  0638  082D               	movf	___xxtofl@arg,w
  6446  0639  00A3               	movwf	?___xxtofl
  6447  063A                     l1174:
  6448  063A  0008               	return
  6449  063B                     __end_of___xxtofl:
  6450                           
  6451                           	psect	text40
  6452  077A                     __ptext40:	
  6453 ;; *************** function ___fltol *****************
  6454 ;; Defined at:
  6455 ;;		line 43 in file "C:\Program Files\Microchip\xc8\v2.20\pic\sources\c90\common\fltol.c"
  6456 ;; Parameters:    Size  Location     Type
  6457 ;;  f1              4   31[BANK0 ] unsigned char 
  6458 ;; Auto vars:     Size  Location     Type
  6459 ;;  exp1            1   40[BANK0 ] unsigned char 
  6460 ;;  sign1           1   39[BANK0 ] unsigned char 
  6461 ;; Return value:  Size  Location     Type
  6462 ;;                  4   31[BANK0 ] long 
  6463 ;; Registers used:
  6464 ;;		wreg, status,2, status,0, btemp+1
  6465 ;; Tracked objects:
  6466 ;;		On entry : 0/0
  6467 ;;		On exit  : 0/0
  6468 ;;		Unchanged: 0/0
  6469 ;; Data sizes:     COMMON   BANK0   BANK1   BANK3   BANK2
  6470 ;;      Params:         0       4       0       0       0
  6471 ;;      Locals:         0       2       0       0       0
  6472 ;;      Temps:          0       4       0       0       0
  6473 ;;      Totals:         0      10       0       0       0
  6474 ;;Total ram usage:       10 bytes
  6475 ;; Hardware stack levels used:    1
  6476 ;; Hardware stack levels required when called:    2
  6477 ;; This function calls:
  6478 ;;		Nothing
  6479 ;; This function is called by:
  6480 ;;		_LM35_ReadTemp
  6481 ;; This function uses a non-reentrant model
  6482 ;;
  6483                           
  6484                           
  6485                           ;psect for function ___fltol
  6486  077A                     ___fltol:
  6487  077A                     l4199:	
  6488                           ;incstack = 0
  6489                           ; Regs used in ___fltol: [wreg+status,2+status,0+btemp+1]
  6490                           
  6491  077A  1003               	clrc
  6492  077B  1283               	bcf	3,5	;RP0=0, select bank0
  6493  077C  1303               	bcf	3,6	;RP1=0, select bank0
  6494  077D  0D41               	rlf	___fltol@f1+2,w
  6495  077E  0D42               	rlf	___fltol@f1+3,w
  6496  077F  00FF               	movwf	btemp+1
  6497  0780  087F               	movf	btemp+1,w
  6498  0781  00C8               	movwf	___fltol@exp1
  6499  0782  0848               	movf	___fltol@exp1,w
  6500  0783  1D03               	btfss	3,2
  6501  0784  2F86               	goto	u4471
  6502  0785  2F87               	goto	u4470
  6503  0786                     u4471:
  6504  0786  2F90               	goto	l4205
  6505  0787                     u4470:
  6506  0787                     l4201:
  6507  0787  3000               	movlw	0
  6508  0788  00C2               	movwf	?___fltol+3
  6509  0789  3000               	movlw	0
  6510  078A  00C1               	movwf	?___fltol+2
  6511  078B  3000               	movlw	0
  6512  078C  00C0               	movwf	?___fltol+1
  6513  078D  3000               	movlw	0
  6514  078E  00BF               	movwf	?___fltol
  6515  078F  2FF5               	goto	l925
  6516  0790                     l4205:
  6517  0790  083F               	movf	___fltol@f1,w
  6518  0791  00C3               	movwf	??___fltol
  6519  0792  0840               	movf	___fltol@f1+1,w
  6520  0793  00C4               	movwf	??___fltol+1
  6521  0794  0841               	movf	___fltol@f1+2,w
  6522  0795  00C5               	movwf	??___fltol+2
  6523  0796  0842               	movf	___fltol@f1+3,w
  6524  0797  00C6               	movwf	??___fltol+3
  6525  0798  301F               	movlw	31
  6526  0799                     u4485:
  6527  0799  1003               	clrc
  6528  079A  0CC6               	rrf	??___fltol+3,f
  6529  079B  0CC5               	rrf	??___fltol+2,f
  6530  079C  0CC4               	rrf	??___fltol+1,f
  6531  079D  0CC3               	rrf	??___fltol,f
  6532  079E                     u4480:
  6533  079E  3EFF               	addlw	-1
  6534  079F  1D03               	skipz
  6535  07A0  2F99               	goto	u4485
  6536  07A1  0843               	movf	??___fltol,w
  6537  07A2  00FF               	movwf	btemp+1
  6538  07A3  087F               	movf	btemp+1,w
  6539  07A4  00C7               	movwf	___fltol@sign1
  6540  07A5                     l4207:
  6541  07A5  17C1               	bsf	___fltol@f1+2,7
  6542  07A6                     l4209:
  6543  07A6  30FF               	movlw	255
  6544  07A7  05BF               	andwf	___fltol@f1,f
  6545  07A8  30FF               	movlw	255
  6546  07A9  05C0               	andwf	___fltol@f1+1,f
  6547  07AA  30FF               	movlw	255
  6548  07AB  05C1               	andwf	___fltol@f1+2,f
  6549  07AC  3000               	movlw	0
  6550  07AD  05C2               	andwf	___fltol@f1+3,f
  6551  07AE                     l4211:
  6552  07AE  3096               	movlw	150
  6553  07AF  02C8               	subwf	___fltol@exp1,f
  6554  07B0                     l4213:
  6555  07B0  1FC8               	btfss	___fltol@exp1,7
  6556  07B1  2FB3               	goto	u4491
  6557  07B2  2FB4               	goto	u4490
  6558  07B3                     u4491:
  6559  07B3  2FCE               	goto	l4225
  6560  07B4                     u4490:
  6561  07B4                     l4215:
  6562  07B4  0848               	movf	___fltol@exp1,w
  6563  07B5  3A80               	xorlw	128
  6564  07B6  3E97               	addlw	151
  6565  07B7  1803               	skipnc
  6566  07B8  2FBA               	goto	u4501
  6567  07B9  2FBB               	goto	u4500
  6568  07BA                     u4501:
  6569  07BA  2FBC               	goto	l4221
  6570  07BB                     u4500:
  6571  07BB  2F87               	goto	l4201
  6572  07BC                     l4221:
  6573  07BC  3001               	movlw	1
  6574  07BD                     u4515:
  6575  07BD  1003               	clrc
  6576  07BE  0CC2               	rrf	___fltol@f1+3,f
  6577  07BF  0CC1               	rrf	___fltol@f1+2,f
  6578  07C0  0CC0               	rrf	___fltol@f1+1,f
  6579  07C1  0CBF               	rrf	___fltol@f1,f
  6580  07C2  3EFF               	addlw	-1
  6581  07C3  1D03               	skipz
  6582  07C4  2FBD               	goto	u4515
  6583  07C5                     l4223:
  6584  07C5  3001               	movlw	1
  6585  07C6  00FF               	movwf	btemp+1
  6586  07C7  087F               	movf	btemp+1,w
  6587  07C8  07C8               	addwf	___fltol@exp1,f
  6588  07C9  1D03               	btfss	3,2
  6589  07CA  2FCC               	goto	u4521
  6590  07CB  2FCD               	goto	u4520
  6591  07CC                     u4521:
  6592  07CC  2FBC               	goto	l4221
  6593  07CD                     u4520:
  6594  07CD  2FE5               	goto	l4233
  6595  07CE                     l4225:
  6596  07CE  3020               	movlw	32
  6597  07CF  0248               	subwf	___fltol@exp1,w
  6598  07D0  1C03               	skipc
  6599  07D1  2FD3               	goto	u4531
  6600  07D2  2FD4               	goto	u4530
  6601  07D3                     u4531:
  6602  07D3  2FE0               	goto	l932
  6603  07D4                     u4530:
  6604  07D4  2F87               	goto	l4201
  6605  07D5                     l4231:
  6606  07D5  3001               	movlw	1
  6607  07D6  00C3               	movwf	??___fltol
  6608  07D7                     u4545:
  6609  07D7  1003               	clrc
  6610  07D8  0DBF               	rlf	___fltol@f1,f
  6611  07D9  0DC0               	rlf	___fltol@f1+1,f
  6612  07DA  0DC1               	rlf	___fltol@f1+2,f
  6613  07DB  0DC2               	rlf	___fltol@f1+3,f
  6614  07DC  0BC3               	decfsz	??___fltol,f
  6615  07DD  2FD7               	goto	u4545
  6616  07DE  3001               	movlw	1
  6617  07DF  02C8               	subwf	___fltol@exp1,f
  6618  07E0                     l932:
  6619  07E0  0848               	movf	___fltol@exp1,w
  6620  07E1  1D03               	btfss	3,2
  6621  07E2  2FE4               	goto	u4551
  6622  07E3  2FE5               	goto	u4550
  6623  07E4                     u4551:
  6624  07E4  2FD5               	goto	l4231
  6625  07E5                     u4550:
  6626  07E5                     l4233:
  6627  07E5  0847               	movf	___fltol@sign1,w
  6628  07E6  1903               	btfsc	3,2
  6629  07E7  2FE9               	goto	u4561
  6630  07E8  2FEA               	goto	u4560
  6631  07E9                     u4561:
  6632  07E9  2FF5               	goto	l935
  6633  07EA                     u4560:
  6634  07EA                     l4235:
  6635  07EA  09BF               	comf	___fltol@f1,f
  6636  07EB  09C0               	comf	___fltol@f1+1,f
  6637  07EC  09C1               	comf	___fltol@f1+2,f
  6638  07ED  09C2               	comf	___fltol@f1+3,f
  6639  07EE  0ABF               	incf	___fltol@f1,f
  6640  07EF  1903               	skipnz
  6641  07F0  0AC0               	incf	___fltol@f1+1,f
  6642  07F1  1903               	skipnz
  6643  07F2  0AC1               	incf	___fltol@f1+2,f
  6644  07F3  1903               	skipnz
  6645  07F4  0AC2               	incf	___fltol@f1+3,f
  6646  07F5                     l935:
  6647  07F5                     l925:
  6648  07F5  0008               	return
  6649  07F6                     __end_of___fltol:
  6650                           
  6651                           	psect	text41
  6652  0041                     __ptext41:	
  6653 ;; *************** function ___flmul *****************
  6654 ;; Defined at:
  6655 ;;		line 8 in file "C:\Program Files\Microchip\xc8\v2.20\pic\sources\c90\common\sprcmul.c"
  6656 ;; Parameters:    Size  Location     Type
  6657 ;;  b               4    5[BANK0 ] long 
  6658 ;;  a               4    9[BANK0 ] long 
  6659 ;; Auto vars:     Size  Location     Type
  6660 ;;  prod            4   25[BANK0 ] struct .
  6661 ;;  grs             4   19[BANK0 ] unsigned long 
  6662 ;;  temp            2   29[BANK0 ] struct .
  6663 ;;  bexp            1   24[BANK0 ] unsigned char 
  6664 ;;  aexp            1   23[BANK0 ] unsigned char 
  6665 ;;  sign            1   18[BANK0 ] unsigned char 
  6666 ;; Return value:  Size  Location     Type
  6667 ;;                  4    5[BANK0 ] unsigned char 
  6668 ;; Registers used:
  6669 ;;		wreg, status,2, status,0, btemp+1, pclath, cstack
  6670 ;; Tracked objects:
  6671 ;;		On entry : 0/0
  6672 ;;		On exit  : 0/0
  6673 ;;		Unchanged: 0/0
  6674 ;; Data sizes:     COMMON   BANK0   BANK1   BANK3   BANK2
  6675 ;;      Params:         0       8       0       0       0
  6676 ;;      Locals:         0      13       0       0       0
  6677 ;;      Temps:          0       5       0       0       0
  6678 ;;      Totals:         0      26       0       0       0
  6679 ;;Total ram usage:       26 bytes
  6680 ;; Hardware stack levels used:    1
  6681 ;; Hardware stack levels required when called:    3
  6682 ;; This function calls:
  6683 ;;		__Umul8_16
  6684 ;; This function is called by:
  6685 ;;		_LM35_ReadTemp
  6686 ;; This function uses a non-reentrant model
  6687 ;;
  6688                           
  6689                           
  6690                           ;psect for function ___flmul
  6691  0041                     ___flmul:
  6692  0041                     l3119:	
  6693                           ;incstack = 0
  6694                           ; Regs used in ___flmul: [wreg+status,2+status,0+btemp+1+pclath+cstack]
  6695                           
  6696  0041  1283               	bcf	3,5	;RP0=0, select bank0
  6697  0042  1303               	bcf	3,6	;RP1=0, select bank0
  6698  0043  0828               	movf	___flmul@b+3,w
  6699  0044  3980               	andlw	128
  6700  0045  00FF               	movwf	btemp+1
  6701  0046  087F               	movf	btemp+1,w
  6702  0047  00B2               	movwf	___flmul@sign
  6703  0048                     l3121:
  6704  0048  0828               	movf	___flmul@b+3,w
  6705  0049  00AD               	movwf	??___flmul
  6706  004A  072D               	addwf	??___flmul,w
  6707  004B  00FF               	movwf	btemp+1
  6708  004C  087F               	movf	btemp+1,w
  6709  004D  00B8               	movwf	___flmul@bexp
  6710  004E                     l3123:
  6711  004E  1FA7               	btfss	___flmul@b+2,7
  6712  004F  2851               	goto	u3041
  6713  0050  2852               	goto	u3040
  6714  0051                     u3041:
  6715  0051  2853               	goto	l3127
  6716  0052                     u3040:
  6717  0052                     l3125:
  6718  0052  1438               	bsf	___flmul@bexp,0
  6719  0053                     l3127:
  6720  0053  0838               	movf	___flmul@bexp,w
  6721  0054  1903               	btfsc	3,2
  6722  0055  2857               	goto	u3051
  6723  0056  2858               	goto	u3050
  6724  0057                     u3051:
  6725  0057  2867               	goto	l3135
  6726  0058                     u3050:
  6727  0058                     l3129:
  6728  0058  0A38               	incf	___flmul@bexp,w
  6729  0059  1D03               	btfss	3,2
  6730  005A  285C               	goto	u3061
  6731  005B  285D               	goto	u3060
  6732  005C                     u3061:
  6733  005C  2865               	goto	l3133
  6734  005D                     u3060:
  6735  005D                     l3131:
  6736  005D  3000               	movlw	0
  6737  005E  00A8               	movwf	___flmul@b+3
  6738  005F  3000               	movlw	0
  6739  0060  00A7               	movwf	___flmul@b+2
  6740  0061  3000               	movlw	0
  6741  0062  00A6               	movwf	___flmul@b+1
  6742  0063  3000               	movlw	0
  6743  0064  00A5               	movwf	___flmul@b
  6744  0065                     l3133:
  6745  0065  17A7               	bsf	___flmul@b+2,7
  6746  0066  286F               	goto	l3137
  6747  0067                     l3135:
  6748  0067  3000               	movlw	0
  6749  0068  00A8               	movwf	___flmul@b+3
  6750  0069  3000               	movlw	0
  6751  006A  00A7               	movwf	___flmul@b+2
  6752  006B  3000               	movlw	0
  6753  006C  00A6               	movwf	___flmul@b+1
  6754  006D  3000               	movlw	0
  6755  006E  00A5               	movwf	___flmul@b
  6756  006F                     l3137:
  6757  006F  082C               	movf	___flmul@a+3,w
  6758  0070  3980               	andlw	128
  6759  0071  00FF               	movwf	btemp+1
  6760  0072  087F               	movf	btemp+1,w
  6761  0073  06B2               	xorwf	___flmul@sign,f
  6762  0074                     l3139:
  6763  0074  082C               	movf	___flmul@a+3,w
  6764  0075  00AD               	movwf	??___flmul
  6765  0076  072D               	addwf	??___flmul,w
  6766  0077  00FF               	movwf	btemp+1
  6767  0078  087F               	movf	btemp+1,w
  6768  0079  00B7               	movwf	___flmul@aexp
  6769  007A                     l3141:
  6770  007A  1FAB               	btfss	___flmul@a+2,7
  6771  007B  287D               	goto	u3071
  6772  007C  287E               	goto	u3070
  6773  007D                     u3071:
  6774  007D  287F               	goto	l3145
  6775  007E                     u3070:
  6776  007E                     l3143:
  6777  007E  1437               	bsf	___flmul@aexp,0
  6778  007F                     l3145:
  6779  007F  0837               	movf	___flmul@aexp,w
  6780  0080  1903               	btfsc	3,2
  6781  0081  2883               	goto	u3081
  6782  0082  2884               	goto	u3080
  6783  0083                     u3081:
  6784  0083  2893               	goto	l3153
  6785  0084                     u3080:
  6786  0084                     l3147:
  6787  0084  0A37               	incf	___flmul@aexp,w
  6788  0085  1D03               	btfss	3,2
  6789  0086  2888               	goto	u3091
  6790  0087  2889               	goto	u3090
  6791  0088                     u3091:
  6792  0088  2891               	goto	l3151
  6793  0089                     u3090:
  6794  0089                     l3149:
  6795  0089  3000               	movlw	0
  6796  008A  00AC               	movwf	___flmul@a+3
  6797  008B  3000               	movlw	0
  6798  008C  00AB               	movwf	___flmul@a+2
  6799  008D  3000               	movlw	0
  6800  008E  00AA               	movwf	___flmul@a+1
  6801  008F  3000               	movlw	0
  6802  0090  00A9               	movwf	___flmul@a
  6803  0091                     l3151:
  6804  0091  17AB               	bsf	___flmul@a+2,7
  6805  0092  289B               	goto	l3155
  6806  0093                     l3153:
  6807  0093  3000               	movlw	0
  6808  0094  00AC               	movwf	___flmul@a+3
  6809  0095  3000               	movlw	0
  6810  0096  00AB               	movwf	___flmul@a+2
  6811  0097  3000               	movlw	0
  6812  0098  00AA               	movwf	___flmul@a+1
  6813  0099  3000               	movlw	0
  6814  009A  00A9               	movwf	___flmul@a
  6815  009B                     l3155:
  6816  009B  0837               	movf	___flmul@aexp,w
  6817  009C  1903               	btfsc	3,2
  6818  009D  289F               	goto	u3101
  6819  009E  28A0               	goto	u3100
  6820  009F                     u3101:
  6821  009F  28A5               	goto	l3159
  6822  00A0                     u3100:
  6823  00A0                     l3157:
  6824  00A0  0838               	movf	___flmul@bexp,w
  6825  00A1  1D03               	btfss	3,2
  6826  00A2  28A4               	goto	u3111
  6827  00A3  28A5               	goto	u3110
  6828  00A4                     u3111:
  6829  00A4  28AE               	goto	l3163
  6830  00A5                     u3110:
  6831  00A5                     l3159:
  6832  00A5  3000               	movlw	0
  6833  00A6  00A8               	movwf	?___flmul+3
  6834  00A7  3000               	movlw	0
  6835  00A8  00A7               	movwf	?___flmul+2
  6836  00A9  3000               	movlw	0
  6837  00AA  00A6               	movwf	?___flmul+1
  6838  00AB  3000               	movlw	0
  6839  00AC  00A5               	movwf	?___flmul
  6840  00AD  2BA1               	goto	l1128
  6841  00AE                     l3163:
  6842  00AE  0825               	movf	___flmul@b,w
  6843  00AF  00FF               	movwf	btemp+1
  6844  00B0  087F               	movf	btemp+1,w
  6845  00B1  00F3               	movwf	__Umul8_16@multiplicand
  6846  00B2  082B               	movf	___flmul@a+2,w
  6847  00B3  120A  158A  21AD  120A  118A  	fcall	__Umul8_16
  6848  00B8  0874               	movf	?__Umul8_16+1,w
  6849  00B9  1283               	bcf	3,5	;RP0=0, select bank0
  6850  00BA  1303               	bcf	3,6	;RP1=0, select bank0
  6851  00BB  00BE               	movwf	___flmul@temp+1
  6852  00BC  0873               	movf	?__Umul8_16,w
  6853  00BD  00BD               	movwf	___flmul@temp
  6854  00BE                     l3165:
  6855  00BE  083D               	movf	___flmul@temp,w
  6856  00BF  00AD               	movwf	??___flmul
  6857  00C0  01AE               	clrf	??___flmul+1
  6858  00C1  01AF               	clrf	??___flmul+2
  6859  00C2  01B0               	clrf	??___flmul+3
  6860  00C3  0830               	movf	??___flmul+3,w
  6861  00C4  00B6               	movwf	___flmul@grs+3
  6862  00C5  082F               	movf	??___flmul+2,w
  6863  00C6  00B5               	movwf	___flmul@grs+2
  6864  00C7  082E               	movf	??___flmul+1,w
  6865  00C8  00B4               	movwf	___flmul@grs+1
  6866  00C9  082D               	movf	??___flmul,w
  6867  00CA  00B3               	movwf	___flmul@grs
  6868  00CB                     l3167:
  6869  00CB  083E               	movf	___flmul@temp+1,w
  6870  00CC  00AD               	movwf	??___flmul
  6871  00CD  01AE               	clrf	??___flmul+1
  6872  00CE  01AF               	clrf	??___flmul+2
  6873  00CF  01B0               	clrf	??___flmul+3
  6874  00D0  0830               	movf	??___flmul+3,w
  6875  00D1  00BC               	movwf	___flmul@prod+3
  6876  00D2  082F               	movf	??___flmul+2,w
  6877  00D3  00BB               	movwf	___flmul@prod+2
  6878  00D4  082E               	movf	??___flmul+1,w
  6879  00D5  00BA               	movwf	___flmul@prod+1
  6880  00D6  082D               	movf	??___flmul,w
  6881  00D7  00B9               	movwf	___flmul@prod
  6882  00D8  0826               	movf	___flmul@b+1,w
  6883  00D9  00FF               	movwf	btemp+1
  6884  00DA  087F               	movf	btemp+1,w
  6885  00DB  00F3               	movwf	__Umul8_16@multiplicand
  6886  00DC  082A               	movf	___flmul@a+1,w
  6887  00DD  120A  158A  21AD  120A  118A  	fcall	__Umul8_16
  6888  00E2  0874               	movf	?__Umul8_16+1,w
  6889  00E3  1283               	bcf	3,5	;RP0=0, select bank0
  6890  00E4  1303               	bcf	3,6	;RP1=0, select bank0
  6891  00E5  00BE               	movwf	___flmul@temp+1
  6892  00E6  0873               	movf	?__Umul8_16,w
  6893  00E7  00BD               	movwf	___flmul@temp
  6894  00E8                     l3169:
  6895  00E8  083D               	movf	___flmul@temp,w
  6896  00E9  00AD               	movwf	??___flmul
  6897  00EA  01AE               	clrf	??___flmul+1
  6898  00EB  01AF               	clrf	??___flmul+2
  6899  00EC  01B0               	clrf	??___flmul+3
  6900  00ED  082D               	movf	??___flmul,w
  6901  00EE  07B3               	addwf	___flmul@grs,f
  6902  00EF  082E               	movf	??___flmul+1,w
  6903  00F0  1103               	clrz
  6904  00F1  1803               	skipnc
  6905  00F2  3E01               	addlw	1
  6906  00F3  1903               	skipnz
  6907  00F4  28F6               	goto	u3121
  6908  00F5  07B4               	addwf	___flmul@grs+1,f
  6909  00F6                     u3121:
  6910  00F6  082F               	movf	??___flmul+2,w
  6911  00F7  1103               	clrz
  6912  00F8  1803               	skipnc
  6913  00F9  3E01               	addlw	1
  6914  00FA  1903               	skipnz
  6915  00FB  28FD               	goto	u3122
  6916  00FC  07B5               	addwf	___flmul@grs+2,f
  6917  00FD                     u3122:
  6918  00FD  0830               	movf	??___flmul+3,w
  6919  00FE  1103               	clrz
  6920  00FF  1803               	skipnc
  6921  0100  3E01               	addlw	1
  6922  0101  1903               	skipnz
  6923  0102  2904               	goto	u3123
  6924  0103  07B6               	addwf	___flmul@grs+3,f
  6925  0104                     u3123:
  6926  0104                     l3171:
  6927  0104  083E               	movf	___flmul@temp+1,w
  6928  0105  00AD               	movwf	??___flmul
  6929  0106  01AE               	clrf	??___flmul+1
  6930  0107  01AF               	clrf	??___flmul+2
  6931  0108  01B0               	clrf	??___flmul+3
  6932  0109  082D               	movf	??___flmul,w
  6933  010A  07B9               	addwf	___flmul@prod,f
  6934  010B  082E               	movf	??___flmul+1,w
  6935  010C  1103               	clrz
  6936  010D  1803               	skipnc
  6937  010E  3E01               	addlw	1
  6938  010F  1903               	skipnz
  6939  0110  2912               	goto	u3131
  6940  0111  07BA               	addwf	___flmul@prod+1,f
  6941  0112                     u3131:
  6942  0112  082F               	movf	??___flmul+2,w
  6943  0113  1103               	clrz
  6944  0114  1803               	skipnc
  6945  0115  3E01               	addlw	1
  6946  0116  1903               	skipnz
  6947  0117  2919               	goto	u3132
  6948  0118  07BB               	addwf	___flmul@prod+2,f
  6949  0119                     u3132:
  6950  0119  0830               	movf	??___flmul+3,w
  6951  011A  1103               	clrz
  6952  011B  1803               	skipnc
  6953  011C  3E01               	addlw	1
  6954  011D  1903               	skipnz
  6955  011E  2920               	goto	u3133
  6956  011F  07BC               	addwf	___flmul@prod+3,f
  6957  0120                     u3133:
  6958  0120  0827               	movf	___flmul@b+2,w
  6959  0121  00FF               	movwf	btemp+1
  6960  0122  087F               	movf	btemp+1,w
  6961  0123  00F3               	movwf	__Umul8_16@multiplicand
  6962  0124  0829               	movf	___flmul@a,w
  6963  0125  120A  158A  21AD  120A  118A  	fcall	__Umul8_16
  6964  012A  0874               	movf	?__Umul8_16+1,w
  6965  012B  1283               	bcf	3,5	;RP0=0, select bank0
  6966  012C  1303               	bcf	3,6	;RP1=0, select bank0
  6967  012D  00BE               	movwf	___flmul@temp+1
  6968  012E  0873               	movf	?__Umul8_16,w
  6969  012F  00BD               	movwf	___flmul@temp
  6970  0130                     l3173:
  6971  0130  083D               	movf	___flmul@temp,w
  6972  0131  00AD               	movwf	??___flmul
  6973  0132  01AE               	clrf	??___flmul+1
  6974  0133  01AF               	clrf	??___flmul+2
  6975  0134  01B0               	clrf	??___flmul+3
  6976  0135  082D               	movf	??___flmul,w
  6977  0136  07B3               	addwf	___flmul@grs,f
  6978  0137  082E               	movf	??___flmul+1,w
  6979  0138  1103               	clrz
  6980  0139  1803               	skipnc
  6981  013A  3E01               	addlw	1
  6982  013B  1903               	skipnz
  6983  013C  293E               	goto	u3141
  6984  013D  07B4               	addwf	___flmul@grs+1,f
  6985  013E                     u3141:
  6986  013E  082F               	movf	??___flmul+2,w
  6987  013F  1103               	clrz
  6988  0140  1803               	skipnc
  6989  0141  3E01               	addlw	1
  6990  0142  1903               	skipnz
  6991  0143  2945               	goto	u3142
  6992  0144  07B5               	addwf	___flmul@grs+2,f
  6993  0145                     u3142:
  6994  0145  0830               	movf	??___flmul+3,w
  6995  0146  1103               	clrz
  6996  0147  1803               	skipnc
  6997  0148  3E01               	addlw	1
  6998  0149  1903               	skipnz
  6999  014A  294C               	goto	u3143
  7000  014B  07B6               	addwf	___flmul@grs+3,f
  7001  014C                     u3143:
  7002  014C                     l3175:
  7003  014C  083E               	movf	___flmul@temp+1,w
  7004  014D  00AD               	movwf	??___flmul
  7005  014E  01AE               	clrf	??___flmul+1
  7006  014F  01AF               	clrf	??___flmul+2
  7007  0150  01B0               	clrf	??___flmul+3
  7008  0151  082D               	movf	??___flmul,w
  7009  0152  07B9               	addwf	___flmul@prod,f
  7010  0153  082E               	movf	??___flmul+1,w
  7011  0154  1103               	clrz
  7012  0155  1803               	skipnc
  7013  0156  3E01               	addlw	1
  7014  0157  1903               	skipnz
  7015  0158  295A               	goto	u3151
  7016  0159  07BA               	addwf	___flmul@prod+1,f
  7017  015A                     u3151:
  7018  015A  082F               	movf	??___flmul+2,w
  7019  015B  1103               	clrz
  7020  015C  1803               	skipnc
  7021  015D  3E01               	addlw	1
  7022  015E  1903               	skipnz
  7023  015F  2961               	goto	u3152
  7024  0160  07BB               	addwf	___flmul@prod+2,f
  7025  0161                     u3152:
  7026  0161  0830               	movf	??___flmul+3,w
  7027  0162  1103               	clrz
  7028  0163  1803               	skipnc
  7029  0164  3E01               	addlw	1
  7030  0165  1903               	skipnz
  7031  0166  2968               	goto	u3153
  7032  0167  07BC               	addwf	___flmul@prod+3,f
  7033  0168                     u3153:
  7034  0168                     l3177:
  7035  0168  3008               	movlw	8
  7036  0169  00AD               	movwf	??___flmul
  7037  016A                     u3165:
  7038  016A  1003               	clrc
  7039  016B  0DB3               	rlf	___flmul@grs,f
  7040  016C  0DB4               	rlf	___flmul@grs+1,f
  7041  016D  0DB5               	rlf	___flmul@grs+2,f
  7042  016E  0DB6               	rlf	___flmul@grs+3,f
  7043  016F  0BAD               	decfsz	??___flmul,f
  7044  0170  296A               	goto	u3165
  7045  0171                     l3179:
  7046  0171  0826               	movf	___flmul@b+1,w
  7047  0172  00FF               	movwf	btemp+1
  7048  0173  087F               	movf	btemp+1,w
  7049  0174  00F3               	movwf	__Umul8_16@multiplicand
  7050  0175  0829               	movf	___flmul@a,w
  7051  0176  120A  158A  21AD  120A  118A  	fcall	__Umul8_16
  7052  017B  0874               	movf	?__Umul8_16+1,w
  7053  017C  1283               	bcf	3,5	;RP0=0, select bank0
  7054  017D  1303               	bcf	3,6	;RP1=0, select bank0
  7055  017E  00BE               	movwf	___flmul@temp+1
  7056  017F  0873               	movf	?__Umul8_16,w
  7057  0180  00BD               	movwf	___flmul@temp
  7058  0181                     l3181:
  7059  0181  083D               	movf	___flmul@temp,w
  7060  0182  00AD               	movwf	??___flmul
  7061  0183  083E               	movf	___flmul@temp+1,w
  7062  0184  00AE               	movwf	??___flmul+1
  7063  0185  01AF               	clrf	??___flmul+2
  7064  0186  01B0               	clrf	??___flmul+3
  7065  0187  082D               	movf	??___flmul,w
  7066  0188  07B3               	addwf	___flmul@grs,f
  7067  0189  082E               	movf	??___flmul+1,w
  7068  018A  1103               	clrz
  7069  018B  1803               	skipnc
  7070  018C  3E01               	addlw	1
  7071  018D  1903               	skipnz
  7072  018E  2990               	goto	u3171
  7073  018F  07B4               	addwf	___flmul@grs+1,f
  7074  0190                     u3171:
  7075  0190  082F               	movf	??___flmul+2,w
  7076  0191  1103               	clrz
  7077  0192  1803               	skipnc
  7078  0193  3E01               	addlw	1
  7079  0194  1903               	skipnz
  7080  0195  2997               	goto	u3172
  7081  0196  07B5               	addwf	___flmul@grs+2,f
  7082  0197                     u3172:
  7083  0197  0830               	movf	??___flmul+3,w
  7084  0198  1103               	clrz
  7085  0199  1803               	skipnc
  7086  019A  3E01               	addlw	1
  7087  019B  1903               	skipnz
  7088  019C  299E               	goto	u3173
  7089  019D  07B6               	addwf	___flmul@grs+3,f
  7090  019E                     u3173:
  7091  019E                     l3183:
  7092  019E  0825               	movf	___flmul@b,w
  7093  019F  00FF               	movwf	btemp+1
  7094  01A0  087F               	movf	btemp+1,w
  7095  01A1  00F3               	movwf	__Umul8_16@multiplicand
  7096  01A2  082A               	movf	___flmul@a+1,w
  7097  01A3  120A  158A  21AD  120A  118A  	fcall	__Umul8_16
  7098  01A8  0874               	movf	?__Umul8_16+1,w
  7099  01A9  1283               	bcf	3,5	;RP0=0, select bank0
  7100  01AA  1303               	bcf	3,6	;RP1=0, select bank0
  7101  01AB  00BE               	movwf	___flmul@temp+1
  7102  01AC  0873               	movf	?__Umul8_16,w
  7103  01AD  00BD               	movwf	___flmul@temp
  7104  01AE                     l3185:
  7105  01AE  083D               	movf	___flmul@temp,w
  7106  01AF  00AD               	movwf	??___flmul
  7107  01B0  083E               	movf	___flmul@temp+1,w
  7108  01B1  00AE               	movwf	??___flmul+1
  7109  01B2  01AF               	clrf	??___flmul+2
  7110  01B3  01B0               	clrf	??___flmul+3
  7111  01B4  082D               	movf	??___flmul,w
  7112  01B5  07B3               	addwf	___flmul@grs,f
  7113  01B6  082E               	movf	??___flmul+1,w
  7114  01B7  1103               	clrz
  7115  01B8  1803               	skipnc
  7116  01B9  3E01               	addlw	1
  7117  01BA  1903               	skipnz
  7118  01BB  29BD               	goto	u3181
  7119  01BC  07B4               	addwf	___flmul@grs+1,f
  7120  01BD                     u3181:
  7121  01BD  082F               	movf	??___flmul+2,w
  7122  01BE  1103               	clrz
  7123  01BF  1803               	skipnc
  7124  01C0  3E01               	addlw	1
  7125  01C1  1903               	skipnz
  7126  01C2  29C4               	goto	u3182
  7127  01C3  07B5               	addwf	___flmul@grs+2,f
  7128  01C4                     u3182:
  7129  01C4  0830               	movf	??___flmul+3,w
  7130  01C5  1103               	clrz
  7131  01C6  1803               	skipnc
  7132  01C7  3E01               	addlw	1
  7133  01C8  1903               	skipnz
  7134  01C9  29CB               	goto	u3183
  7135  01CA  07B6               	addwf	___flmul@grs+3,f
  7136  01CB                     u3183:
  7137  01CB                     l3187:
  7138  01CB  3008               	movlw	8
  7139  01CC  00AD               	movwf	??___flmul
  7140  01CD                     u3195:
  7141  01CD  1003               	clrc
  7142  01CE  0DB3               	rlf	___flmul@grs,f
  7143  01CF  0DB4               	rlf	___flmul@grs+1,f
  7144  01D0  0DB5               	rlf	___flmul@grs+2,f
  7145  01D1  0DB6               	rlf	___flmul@grs+3,f
  7146  01D2  0BAD               	decfsz	??___flmul,f
  7147  01D3  29CD               	goto	u3195
  7148  01D4  0825               	movf	___flmul@b,w
  7149  01D5  00FF               	movwf	btemp+1
  7150  01D6  087F               	movf	btemp+1,w
  7151  01D7  00F3               	movwf	__Umul8_16@multiplicand
  7152  01D8  0829               	movf	___flmul@a,w
  7153  01D9  120A  158A  21AD  120A  118A  	fcall	__Umul8_16
  7154  01DE  0874               	movf	?__Umul8_16+1,w
  7155  01DF  1283               	bcf	3,5	;RP0=0, select bank0
  7156  01E0  1303               	bcf	3,6	;RP1=0, select bank0
  7157  01E1  00BE               	movwf	___flmul@temp+1
  7158  01E2  0873               	movf	?__Umul8_16,w
  7159  01E3  00BD               	movwf	___flmul@temp
  7160  01E4                     l3189:
  7161  01E4  083D               	movf	___flmul@temp,w
  7162  01E5  00AD               	movwf	??___flmul
  7163  01E6  083E               	movf	___flmul@temp+1,w
  7164  01E7  00AE               	movwf	??___flmul+1
  7165  01E8  01AF               	clrf	??___flmul+2
  7166  01E9  01B0               	clrf	??___flmul+3
  7167  01EA  082D               	movf	??___flmul,w
  7168  01EB  07B3               	addwf	___flmul@grs,f
  7169  01EC  082E               	movf	??___flmul+1,w
  7170  01ED  1103               	clrz
  7171  01EE  1803               	skipnc
  7172  01EF  3E01               	addlw	1
  7173  01F0  1903               	skipnz
  7174  01F1  29F3               	goto	u3201
  7175  01F2  07B4               	addwf	___flmul@grs+1,f
  7176  01F3                     u3201:
  7177  01F3  082F               	movf	??___flmul+2,w
  7178  01F4  1103               	clrz
  7179  01F5  1803               	skipnc
  7180  01F6  3E01               	addlw	1
  7181  01F7  1903               	skipnz
  7182  01F8  29FA               	goto	u3202
  7183  01F9  07B5               	addwf	___flmul@grs+2,f
  7184  01FA                     u3202:
  7185  01FA  0830               	movf	??___flmul+3,w
  7186  01FB  1103               	clrz
  7187  01FC  1803               	skipnc
  7188  01FD  3E01               	addlw	1
  7189  01FE  1903               	skipnz
  7190  01FF  2A01               	goto	u3203
  7191  0200  07B6               	addwf	___flmul@grs+3,f
  7192  0201                     u3203:
  7193  0201                     l3191:
  7194  0201  0826               	movf	___flmul@b+1,w
  7195  0202  00FF               	movwf	btemp+1
  7196  0203  087F               	movf	btemp+1,w
  7197  0204  00F3               	movwf	__Umul8_16@multiplicand
  7198  0205  082B               	movf	___flmul@a+2,w
  7199  0206  120A  158A  21AD  120A  118A  	fcall	__Umul8_16
  7200  020B  0874               	movf	?__Umul8_16+1,w
  7201  020C  1283               	bcf	3,5	;RP0=0, select bank0
  7202  020D  1303               	bcf	3,6	;RP1=0, select bank0
  7203  020E  00BE               	movwf	___flmul@temp+1
  7204  020F  0873               	movf	?__Umul8_16,w
  7205  0210  00BD               	movwf	___flmul@temp
  7206  0211  083D               	movf	___flmul@temp,w
  7207  0212  00AD               	movwf	??___flmul
  7208  0213  083E               	movf	___flmul@temp+1,w
  7209  0214  00AE               	movwf	??___flmul+1
  7210  0215  01AF               	clrf	??___flmul+2
  7211  0216  01B0               	clrf	??___flmul+3
  7212  0217  082D               	movf	??___flmul,w
  7213  0218  07B9               	addwf	___flmul@prod,f
  7214  0219  082E               	movf	??___flmul+1,w
  7215  021A  1103               	clrz
  7216  021B  1803               	skipnc
  7217  021C  3E01               	addlw	1
  7218  021D  1903               	skipnz
  7219  021E  2A20               	goto	u3211
  7220  021F  07BA               	addwf	___flmul@prod+1,f
  7221  0220                     u3211:
  7222  0220  082F               	movf	??___flmul+2,w
  7223  0221  1103               	clrz
  7224  0222  1803               	skipnc
  7225  0223  3E01               	addlw	1
  7226  0224  1903               	skipnz
  7227  0225  2A27               	goto	u3212
  7228  0226  07BB               	addwf	___flmul@prod+2,f
  7229  0227                     u3212:
  7230  0227  0830               	movf	??___flmul+3,w
  7231  0228  1103               	clrz
  7232  0229  1803               	skipnc
  7233  022A  3E01               	addlw	1
  7234  022B  1903               	skipnz
  7235  022C  2A2E               	goto	u3213
  7236  022D  07BC               	addwf	___flmul@prod+3,f
  7237  022E                     u3213:
  7238  022E                     l3193:
  7239  022E  0827               	movf	___flmul@b+2,w
  7240  022F  00FF               	movwf	btemp+1
  7241  0230  087F               	movf	btemp+1,w
  7242  0231  00F3               	movwf	__Umul8_16@multiplicand
  7243  0232  082A               	movf	___flmul@a+1,w
  7244  0233  120A  158A  21AD  120A  118A  	fcall	__Umul8_16
  7245  0238  0874               	movf	?__Umul8_16+1,w
  7246  0239  1283               	bcf	3,5	;RP0=0, select bank0
  7247  023A  1303               	bcf	3,6	;RP1=0, select bank0
  7248  023B  00BE               	movwf	___flmul@temp+1
  7249  023C  0873               	movf	?__Umul8_16,w
  7250  023D  00BD               	movwf	___flmul@temp
  7251  023E                     l3195:
  7252  023E  083D               	movf	___flmul@temp,w
  7253  023F  00AD               	movwf	??___flmul
  7254  0240  083E               	movf	___flmul@temp+1,w
  7255  0241  00AE               	movwf	??___flmul+1
  7256  0242  01AF               	clrf	??___flmul+2
  7257  0243  01B0               	clrf	??___flmul+3
  7258  0244  082D               	movf	??___flmul,w
  7259  0245  07B9               	addwf	___flmul@prod,f
  7260  0246  082E               	movf	??___flmul+1,w
  7261  0247  1103               	clrz
  7262  0248  1803               	skipnc
  7263  0249  3E01               	addlw	1
  7264  024A  1903               	skipnz
  7265  024B  2A4D               	goto	u3221
  7266  024C  07BA               	addwf	___flmul@prod+1,f
  7267  024D                     u3221:
  7268  024D  082F               	movf	??___flmul+2,w
  7269  024E  1103               	clrz
  7270  024F  1803               	skipnc
  7271  0250  3E01               	addlw	1
  7272  0251  1903               	skipnz
  7273  0252  2A54               	goto	u3222
  7274  0253  07BB               	addwf	___flmul@prod+2,f
  7275  0254                     u3222:
  7276  0254  0830               	movf	??___flmul+3,w
  7277  0255  1103               	clrz
  7278  0256  1803               	skipnc
  7279  0257  3E01               	addlw	1
  7280  0258  1903               	skipnz
  7281  0259  2A5B               	goto	u3223
  7282  025A  07BC               	addwf	___flmul@prod+3,f
  7283  025B                     u3223:
  7284  025B  0827               	movf	___flmul@b+2,w
  7285  025C  00FF               	movwf	btemp+1
  7286  025D  087F               	movf	btemp+1,w
  7287  025E  00F3               	movwf	__Umul8_16@multiplicand
  7288  025F  082B               	movf	___flmul@a+2,w
  7289  0260  120A  158A  21AD  120A  118A  	fcall	__Umul8_16
  7290  0265  0874               	movf	?__Umul8_16+1,w
  7291  0266  1283               	bcf	3,5	;RP0=0, select bank0
  7292  0267  1303               	bcf	3,6	;RP1=0, select bank0
  7293  0268  00BE               	movwf	___flmul@temp+1
  7294  0269  0873               	movf	?__Umul8_16,w
  7295  026A  00BD               	movwf	___flmul@temp
  7296  026B                     l3197:
  7297  026B  083D               	movf	___flmul@temp,w
  7298  026C  00AD               	movwf	??___flmul
  7299  026D  083E               	movf	___flmul@temp+1,w
  7300  026E  00AE               	movwf	??___flmul+1
  7301  026F  01AF               	clrf	??___flmul+2
  7302  0270  01B0               	clrf	??___flmul+3
  7303  0271  3008               	movlw	8
  7304  0272                     u3235:
  7305  0272  1003               	clrc
  7306  0273  0DAD               	rlf	??___flmul,f
  7307  0274  0DAE               	rlf	??___flmul+1,f
  7308  0275  0DAF               	rlf	??___flmul+2,f
  7309  0276  0DB0               	rlf	??___flmul+3,f
  7310  0277                     u3230:
  7311  0277  3EFF               	addlw	-1
  7312  0278  1D03               	skipz
  7313  0279  2A72               	goto	u3235
  7314  027A  082D               	movf	??___flmul,w
  7315  027B  07B9               	addwf	___flmul@prod,f
  7316  027C  082E               	movf	??___flmul+1,w
  7317  027D  1103               	clrz
  7318  027E  1803               	skipnc
  7319  027F  3E01               	addlw	1
  7320  0280  1903               	skipnz
  7321  0281  2A83               	goto	u3241
  7322  0282  07BA               	addwf	___flmul@prod+1,f
  7323  0283                     u3241:
  7324  0283  082F               	movf	??___flmul+2,w
  7325  0284  1103               	clrz
  7326  0285  1803               	skipnc
  7327  0286  3E01               	addlw	1
  7328  0287  1903               	skipnz
  7329  0288  2A8A               	goto	u3242
  7330  0289  07BB               	addwf	___flmul@prod+2,f
  7331  028A                     u3242:
  7332  028A  0830               	movf	??___flmul+3,w
  7333  028B  1103               	clrz
  7334  028C  1803               	skipnc
  7335  028D  3E01               	addlw	1
  7336  028E  1903               	skipnz
  7337  028F  2A91               	goto	u3243
  7338  0290  07BC               	addwf	___flmul@prod+3,f
  7339  0291                     u3243:
  7340  0291                     l3199:
  7341  0291  0833               	movf	___flmul@grs,w
  7342  0292  00AD               	movwf	??___flmul
  7343  0293  0834               	movf	___flmul@grs+1,w
  7344  0294  00AE               	movwf	??___flmul+1
  7345  0295  0835               	movf	___flmul@grs+2,w
  7346  0296  00AF               	movwf	??___flmul+2
  7347  0297  0836               	movf	___flmul@grs+3,w
  7348  0298  00B0               	movwf	??___flmul+3
  7349  0299  3018               	movlw	24
  7350  029A                     u3255:
  7351  029A  1003               	clrc
  7352  029B  0CB0               	rrf	??___flmul+3,f
  7353  029C  0CAF               	rrf	??___flmul+2,f
  7354  029D  0CAE               	rrf	??___flmul+1,f
  7355  029E  0CAD               	rrf	??___flmul,f
  7356  029F                     u3250:
  7357  029F  3EFF               	addlw	-1
  7358  02A0  1D03               	skipz
  7359  02A1  2A9A               	goto	u3255
  7360  02A2  082D               	movf	??___flmul,w
  7361  02A3  07B9               	addwf	___flmul@prod,f
  7362  02A4  082E               	movf	??___flmul+1,w
  7363  02A5  1103               	clrz
  7364  02A6  1803               	skipnc
  7365  02A7  3E01               	addlw	1
  7366  02A8  1903               	skipnz
  7367  02A9  2AAB               	goto	u3261
  7368  02AA  07BA               	addwf	___flmul@prod+1,f
  7369  02AB                     u3261:
  7370  02AB  082F               	movf	??___flmul+2,w
  7371  02AC  1103               	clrz
  7372  02AD  1803               	skipnc
  7373  02AE  3E01               	addlw	1
  7374  02AF  1903               	skipnz
  7375  02B0  2AB2               	goto	u3262
  7376  02B1  07BB               	addwf	___flmul@prod+2,f
  7377  02B2                     u3262:
  7378  02B2  0830               	movf	??___flmul+3,w
  7379  02B3  1103               	clrz
  7380  02B4  1803               	skipnc
  7381  02B5  3E01               	addlw	1
  7382  02B6  1903               	skipnz
  7383  02B7  2AB9               	goto	u3263
  7384  02B8  07BC               	addwf	___flmul@prod+3,f
  7385  02B9                     u3263:
  7386  02B9                     l3201:
  7387  02B9  3008               	movlw	8
  7388  02BA  00AD               	movwf	??___flmul
  7389  02BB                     u3275:
  7390  02BB  1003               	clrc
  7391  02BC  0DB3               	rlf	___flmul@grs,f
  7392  02BD  0DB4               	rlf	___flmul@grs+1,f
  7393  02BE  0DB5               	rlf	___flmul@grs+2,f
  7394  02BF  0DB6               	rlf	___flmul@grs+3,f
  7395  02C0  0BAD               	decfsz	??___flmul,f
  7396  02C1  2ABB               	goto	u3275
  7397  02C2                     l3203:
  7398  02C2  0838               	movf	___flmul@bexp,w
  7399  02C3  0737               	addwf	___flmul@aexp,w
  7400  02C4  00AD               	movwf	??___flmul
  7401  02C5  01AE               	clrf	??___flmul+1
  7402  02C6  0DAE               	rlf	??___flmul+1,f
  7403  02C7  082D               	movf	??___flmul,w
  7404  02C8  3E82               	addlw	130
  7405  02C9  00BD               	movwf	___flmul@temp
  7406  02CA  082E               	movf	??___flmul+1,w
  7407  02CB  1803               	skipnc
  7408  02CC  3E01               	addlw	1
  7409  02CD  3EFF               	addlw	255
  7410  02CE  00BE               	movwf	___flmul@temp+1
  7411  02CF  2AED               	goto	l3215
  7412  02D0                     l3205:
  7413  02D0  3001               	movlw	1
  7414  02D1  00AD               	movwf	??___flmul
  7415  02D2                     u3285:
  7416  02D2  1003               	clrc
  7417  02D3  0DB9               	rlf	___flmul@prod,f
  7418  02D4  0DBA               	rlf	___flmul@prod+1,f
  7419  02D5  0DBB               	rlf	___flmul@prod+2,f
  7420  02D6  0DBC               	rlf	___flmul@prod+3,f
  7421  02D7  0BAD               	decfsz	??___flmul,f
  7422  02D8  2AD2               	goto	u3285
  7423  02D9                     l3207:
  7424  02D9  1FB6               	btfss	___flmul@grs+3,7
  7425  02DA  2ADC               	goto	u3291
  7426  02DB  2ADD               	goto	u3290
  7427  02DC                     u3291:
  7428  02DC  2ADE               	goto	l3211
  7429  02DD                     u3290:
  7430  02DD                     l3209:
  7431  02DD  1439               	bsf	___flmul@prod,0
  7432  02DE                     l3211:
  7433  02DE  3001               	movlw	1
  7434  02DF  00AD               	movwf	??___flmul
  7435  02E0                     u3305:
  7436  02E0  1003               	clrc
  7437  02E1  0DB3               	rlf	___flmul@grs,f
  7438  02E2  0DB4               	rlf	___flmul@grs+1,f
  7439  02E3  0DB5               	rlf	___flmul@grs+2,f
  7440  02E4  0DB6               	rlf	___flmul@grs+3,f
  7441  02E5  0BAD               	decfsz	??___flmul,f
  7442  02E6  2AE0               	goto	u3305
  7443  02E7                     l3213:
  7444  02E7  30FF               	movlw	255
  7445  02E8  07BD               	addwf	___flmul@temp,f
  7446  02E9  1803               	skipnc
  7447  02EA  0ABE               	incf	___flmul@temp+1,f
  7448  02EB  30FF               	movlw	255
  7449  02EC  07BE               	addwf	___flmul@temp+1,f
  7450  02ED                     l3215:
  7451  02ED  1FBB               	btfss	___flmul@prod+2,7
  7452  02EE  2AF0               	goto	u3311
  7453  02EF  2AF1               	goto	u3310
  7454  02F0                     u3311:
  7455  02F0  2AD0               	goto	l3205
  7456  02F1                     u3310:
  7457  02F1                     l3217:
  7458  02F1  01B7               	clrf	___flmul@aexp
  7459  02F2                     l3219:
  7460  02F2  1FB6               	btfss	___flmul@grs+3,7
  7461  02F3  2AF5               	goto	u3321
  7462  02F4  2AF6               	goto	u3320
  7463  02F5                     u3321:
  7464  02F5  2B12               	goto	l3227
  7465  02F6                     u3320:
  7466  02F6                     l3221:
  7467  02F6  30FF               	movlw	255
  7468  02F7  0533               	andwf	___flmul@grs,w
  7469  02F8  00AD               	movwf	??___flmul
  7470  02F9  30FF               	movlw	255
  7471  02FA  0534               	andwf	___flmul@grs+1,w
  7472  02FB  00AE               	movwf	??___flmul+1
  7473  02FC  30FF               	movlw	255
  7474  02FD  0535               	andwf	___flmul@grs+2,w
  7475  02FE  00AF               	movwf	??___flmul+2
  7476  02FF  307F               	movlw	127
  7477  0300  0536               	andwf	___flmul@grs+3,w
  7478  0301  00B0               	movwf	??___flmul+3
  7479  0302  0830               	movf	??___flmul+3,w
  7480  0303  042F               	iorwf	??___flmul+2,w
  7481  0304  042E               	iorwf	??___flmul+1,w
  7482  0305  042D               	iorwf	??___flmul,w
  7483  0306  1903               	skipnz
  7484  0307  2B09               	goto	u3331
  7485  0308  2B0A               	goto	u3330
  7486  0309                     u3331:
  7487  0309  2B0D               	goto	l1134
  7488  030A                     u3330:
  7489  030A                     l3223:
  7490  030A  01B7               	clrf	___flmul@aexp
  7491  030B  0AB7               	incf	___flmul@aexp,f
  7492  030C  2B12               	goto	l3227
  7493  030D                     l1134:
  7494  030D  1C39               	btfss	___flmul@prod,0
  7495  030E  2B10               	goto	u3341
  7496  030F  2B11               	goto	u3340
  7497  0310                     u3341:
  7498  0310  2B12               	goto	l3227
  7499  0311                     u3340:
  7500  0311  2B0A               	goto	l3223
  7501  0312                     l3227:
  7502  0312  0837               	movf	___flmul@aexp,w
  7503  0313  1903               	btfsc	3,2
  7504  0314  2B16               	goto	u3351
  7505  0315  2B17               	goto	u3350
  7506  0316                     u3351:
  7507  0316  2B48               	goto	l3237
  7508  0317                     u3350:
  7509  0317                     l3229:
  7510  0317  3001               	movlw	1
  7511  0318  07B9               	addwf	___flmul@prod,f
  7512  0319  3000               	movlw	0
  7513  031A  1803               	skipnc
  7514  031B  3001               	movlw	1
  7515  031C  07BA               	addwf	___flmul@prod+1,f
  7516  031D  3000               	movlw	0
  7517  031E  1803               	skipnc
  7518  031F  3001               	movlw	1
  7519  0320  07BB               	addwf	___flmul@prod+2,f
  7520  0321  3000               	movlw	0
  7521  0322  1803               	skipnc
  7522  0323  3001               	movlw	1
  7523  0324  07BC               	addwf	___flmul@prod+3,f
  7524  0325                     l3231:
  7525  0325  1C3C               	btfss	___flmul@prod+3,0
  7526  0326  2B28               	goto	u3361
  7527  0327  2B29               	goto	u3360
  7528  0328                     u3361:
  7529  0328  2B48               	goto	l3237
  7530  0329                     u3360:
  7531  0329                     l3233:
  7532  0329  0839               	movf	___flmul@prod,w
  7533  032A  00AD               	movwf	??___flmul
  7534  032B  083A               	movf	___flmul@prod+1,w
  7535  032C  00AE               	movwf	??___flmul+1
  7536  032D  083B               	movf	___flmul@prod+2,w
  7537  032E  00AF               	movwf	??___flmul+2
  7538  032F  083C               	movf	___flmul@prod+3,w
  7539  0330  00B0               	movwf	??___flmul+3
  7540  0331  3001               	movlw	1
  7541  0332  00B1               	movwf	??___flmul+4
  7542  0333                     u3375:
  7543  0333  0D30               	rlf	??___flmul+3,w
  7544  0334  0CB0               	rrf	??___flmul+3,f
  7545  0335  0CAF               	rrf	??___flmul+2,f
  7546  0336  0CAE               	rrf	??___flmul+1,f
  7547  0337  0CAD               	rrf	??___flmul,f
  7548  0338                     u3370:
  7549  0338  0BB1               	decfsz	??___flmul+4,f
  7550  0339  2B33               	goto	u3375
  7551  033A  0830               	movf	??___flmul+3,w
  7552  033B  00BC               	movwf	___flmul@prod+3
  7553  033C  082F               	movf	??___flmul+2,w
  7554  033D  00BB               	movwf	___flmul@prod+2
  7555  033E  082E               	movf	??___flmul+1,w
  7556  033F  00BA               	movwf	___flmul@prod+1
  7557  0340  082D               	movf	??___flmul,w
  7558  0341  00B9               	movwf	___flmul@prod
  7559  0342                     l3235:
  7560  0342  3001               	movlw	1
  7561  0343  07BD               	addwf	___flmul@temp,f
  7562  0344  1803               	skipnc
  7563  0345  0ABE               	incf	___flmul@temp+1,f
  7564  0346  3000               	movlw	0
  7565  0347  07BE               	addwf	___flmul@temp+1,f
  7566  0348                     l3237:
  7567  0348  083E               	movf	___flmul@temp+1,w
  7568  0349  3A80               	xorlw	128
  7569  034A  00FF               	movwf	btemp+1
  7570  034B  3080               	movlw	128
  7571  034C  027F               	subwf	btemp+1,w
  7572  034D  1D03               	skipz
  7573  034E  2B51               	goto	u3385
  7574  034F  30FF               	movlw	255
  7575  0350  023D               	subwf	___flmul@temp,w
  7576  0351                     u3385:
  7577  0351  1C03               	skipc
  7578  0352  2B54               	goto	u3381
  7579  0353  2B55               	goto	u3380
  7580  0354                     u3381:
  7581  0354  2B60               	goto	l3241
  7582  0355                     u3380:
  7583  0355                     l3239:
  7584  0355  307F               	movlw	127
  7585  0356  1283               	bcf	3,5	;RP0=0, select bank0
  7586  0357  1303               	bcf	3,6	;RP1=0, select bank0
  7587  0358  00BC               	movwf	___flmul@prod+3
  7588  0359  3080               	movlw	128
  7589  035A  00BB               	movwf	___flmul@prod+2
  7590  035B  3000               	movlw	0
  7591  035C  00BA               	movwf	___flmul@prod+1
  7592  035D  3000               	movlw	0
  7593  035E  00B9               	movwf	___flmul@prod
  7594  035F  2B95               	goto	l1140
  7595  0360                     l3241:
  7596  0360  1283               	bcf	3,5	;RP0=0, select bank0
  7597  0361  1303               	bcf	3,6	;RP1=0, select bank0
  7598  0362  083E               	movf	___flmul@temp+1,w
  7599  0363  3A80               	xorlw	128
  7600  0364  00FF               	movwf	btemp+1
  7601  0365  3080               	movlw	128
  7602  0366  027F               	subwf	btemp+1,w
  7603  0367  1D03               	skipz
  7604  0368  2B6B               	goto	u3395
  7605  0369  3001               	movlw	1
  7606  036A  023D               	subwf	___flmul@temp,w
  7607  036B                     u3395:
  7608  036B  1803               	skipnc
  7609  036C  2B6E               	goto	u3391
  7610  036D  2B6F               	goto	u3390
  7611  036E                     u3391:
  7612  036E  2B7B               	goto	l3247
  7613  036F                     u3390:
  7614  036F                     l3243:
  7615  036F  3000               	movlw	0
  7616  0370  1283               	bcf	3,5	;RP0=0, select bank0
  7617  0371  1303               	bcf	3,6	;RP1=0, select bank0
  7618  0372  00BC               	movwf	___flmul@prod+3
  7619  0373  3000               	movlw	0
  7620  0374  00BB               	movwf	___flmul@prod+2
  7621  0375  3000               	movlw	0
  7622  0376  00BA               	movwf	___flmul@prod+1
  7623  0377  3000               	movlw	0
  7624  0378  00B9               	movwf	___flmul@prod
  7625  0379                     l3245:
  7626  0379  01B2               	clrf	___flmul@sign
  7627  037A  2B95               	goto	l1140
  7628  037B                     l3247:
  7629  037B  1283               	bcf	3,5	;RP0=0, select bank0
  7630  037C  1303               	bcf	3,6	;RP1=0, select bank0
  7631  037D  083D               	movf	___flmul@temp,w
  7632  037E  00FF               	movwf	btemp+1
  7633  037F  087F               	movf	btemp+1,w
  7634  0380  00B8               	movwf	___flmul@bexp
  7635  0381                     l3249:
  7636  0381  30FF               	movlw	255
  7637  0382  05B9               	andwf	___flmul@prod,f
  7638  0383  30FF               	movlw	255
  7639  0384  05BA               	andwf	___flmul@prod+1,f
  7640  0385  307F               	movlw	127
  7641  0386  05BB               	andwf	___flmul@prod+2,f
  7642  0387  3000               	movlw	0
  7643  0388  05BC               	andwf	___flmul@prod+3,f
  7644  0389                     l3251:
  7645  0389  1C38               	btfss	___flmul@bexp,0
  7646  038A  2B8C               	goto	u3401
  7647  038B  2B8D               	goto	u3400
  7648  038C                     u3401:
  7649  038C  2B8E               	goto	l3255
  7650  038D                     u3400:
  7651  038D                     l3253:
  7652  038D  17BB               	bsf	___flmul@prod+2,7
  7653  038E                     l3255:
  7654  038E  0838               	movf	___flmul@bexp,w
  7655  038F  00AD               	movwf	??___flmul
  7656  0390  1003               	clrc
  7657  0391  0C2D               	rrf	??___flmul,w
  7658  0392  00FF               	movwf	btemp+1
  7659  0393  087F               	movf	btemp+1,w
  7660  0394  00BC               	movwf	___flmul@prod+3
  7661  0395                     l1140:
  7662  0395  0832               	movf	___flmul@sign,w
  7663  0396  00FF               	movwf	btemp+1
  7664  0397  087F               	movf	btemp+1,w
  7665  0398  04BC               	iorwf	___flmul@prod+3,f
  7666  0399                     l3257:
  7667  0399  083C               	movf	___flmul@prod+3,w
  7668  039A  00A8               	movwf	?___flmul+3
  7669  039B  083B               	movf	___flmul@prod+2,w
  7670  039C  00A7               	movwf	?___flmul+2
  7671  039D  083A               	movf	___flmul@prod+1,w
  7672  039E  00A6               	movwf	?___flmul+1
  7673  039F  0839               	movf	___flmul@prod,w
  7674  03A0  00A5               	movwf	?___flmul
  7675  03A1                     l1128:
  7676  03A1  0008               	return
  7677  03A2                     __end_of___flmul:
  7678                           
  7679                           	psect	text42
  7680  09AD                     __ptext42:	
  7681 ;; *************** function __Umul8_16 *****************
  7682 ;; Defined at:
  7683 ;;		line 4 in file "C:\Program Files\Microchip\xc8\v2.20\pic\sources\c90\common\Umul8_16.c"
  7684 ;; Parameters:    Size  Location     Type
  7685 ;;  multiplier      1    wreg     unsigned char 
  7686 ;;  multiplicand    1    3[COMMON] unsigned char 
  7687 ;; Auto vars:     Size  Location     Type
  7688 ;;  multiplier      1    4[BANK0 ] unsigned char 
  7689 ;;  word_mpld       2    2[BANK0 ] unsigned int 
  7690 ;;  product         2    0[BANK0 ] unsigned int 
  7691 ;; Return value:  Size  Location     Type
  7692 ;;                  2    3[COMMON] unsigned int 
  7693 ;; Registers used:
  7694 ;;		wreg, status,2, status,0
  7695 ;; Tracked objects:
  7696 ;;		On entry : 0/0
  7697 ;;		On exit  : 0/0
  7698 ;;		Unchanged: 0/0
  7699 ;; Data sizes:     COMMON   BANK0   BANK1   BANK3   BANK2
  7700 ;;      Params:         2       0       0       0       0
  7701 ;;      Locals:         0       5       0       0       0
  7702 ;;      Temps:          2       0       0       0       0
  7703 ;;      Totals:         4       5       0       0       0
  7704 ;;Total ram usage:        9 bytes
  7705 ;; Hardware stack levels used:    1
  7706 ;; Hardware stack levels required when called:    2
  7707 ;; This function calls:
  7708 ;;		Nothing
  7709 ;; This function is called by:
  7710 ;;		___flmul
  7711 ;; This function uses a non-reentrant model
  7712 ;;
  7713                           
  7714                           
  7715                           ;psect for function __Umul8_16
  7716  09AD                     __Umul8_16:
  7717                           
  7718                           ;incstack = 0
  7719                           ; Regs used in __Umul8_16: [wreg+status,2+status,0]
  7720                           ;__Umul8_16@multiplier stored from wreg
  7721  09AD  1283               	bcf	3,5	;RP0=0, select bank0
  7722  09AE  1303               	bcf	3,6	;RP1=0, select bank0
  7723  09AF  00A4               	movwf	__Umul8_16@multiplier
  7724  09B0                     l2823:
  7725  09B0  01A0               	clrf	__Umul8_16@product
  7726  09B1  01A1               	clrf	__Umul8_16@product+1
  7727  09B2                     l2825:
  7728  09B2  0873               	movf	__Umul8_16@multiplicand,w
  7729  09B3  00F5               	movwf	??__Umul8_16
  7730  09B4  01F6               	clrf	??__Umul8_16+1
  7731  09B5  0875               	movf	??__Umul8_16,w
  7732  09B6  00A2               	movwf	__Umul8_16@word_mpld
  7733  09B7  0876               	movf	??__Umul8_16+1,w
  7734  09B8  00A3               	movwf	__Umul8_16@word_mpld+1
  7735  09B9                     l2827:
  7736  09B9  1C24               	btfss	__Umul8_16@multiplier,0
  7737  09BA  29BC               	goto	u2501
  7738  09BB  29BD               	goto	u2500
  7739  09BC                     u2501:
  7740  09BC  29C3               	goto	l1147
  7741  09BD                     u2500:
  7742  09BD                     l2829:
  7743  09BD  0822               	movf	__Umul8_16@word_mpld,w
  7744  09BE  07A0               	addwf	__Umul8_16@product,f
  7745  09BF  1803               	skipnc
  7746  09C0  0AA1               	incf	__Umul8_16@product+1,f
  7747  09C1  0823               	movf	__Umul8_16@word_mpld+1,w
  7748  09C2  07A1               	addwf	__Umul8_16@product+1,f
  7749  09C3                     l1147:
  7750  09C3  3001               	movlw	1
  7751  09C4                     u2515:
  7752  09C4  1003               	clrc
  7753  09C5  0DA2               	rlf	__Umul8_16@word_mpld,f
  7754  09C6  0DA3               	rlf	__Umul8_16@word_mpld+1,f
  7755  09C7  3EFF               	addlw	-1
  7756  09C8  1D03               	skipz
  7757  09C9  29C4               	goto	u2515
  7758  09CA  1003               	clrc
  7759  09CB  0CA4               	rrf	__Umul8_16@multiplier,f
  7760  09CC                     l2831:
  7761  09CC  0824               	movf	__Umul8_16@multiplier,w
  7762  09CD  1D03               	btfss	3,2
  7763  09CE  29D0               	goto	u2521
  7764  09CF  29D1               	goto	u2520
  7765  09D0                     u2521:
  7766  09D0  29B9               	goto	l2827
  7767  09D1                     u2520:
  7768  09D1                     l2833:
  7769  09D1  0821               	movf	__Umul8_16@product+1,w
  7770  09D2  00F4               	movwf	?__Umul8_16+1
  7771  09D3  0820               	movf	__Umul8_16@product,w
  7772  09D4  00F3               	movwf	?__Umul8_16
  7773  09D5                     l1149:
  7774  09D5  0008               	return
  7775  09D6                     __end_of__Umul8_16:
  7776                           
  7777                           	psect	text43
  7778  03A2                     __ptext43:	
  7779 ;; *************** function ___fldiv *****************
  7780 ;; Defined at:
  7781 ;;		line 8 in file "C:\Program Files\Microchip\xc8\v2.20\pic\sources\c90\common\sprcdiv.c"
  7782 ;; Parameters:    Size  Location     Type
  7783 ;;  a               4   31[BANK0 ] unsigned int 
  7784 ;;  b               4   35[BANK0 ] unsigned int 
  7785 ;; Auto vars:     Size  Location     Type
  7786 ;;  grs             4   51[BANK0 ] unsigned long 
  7787 ;;  rem             4   44[BANK0 ] unsigned long 
  7788 ;;  new_exp         2   49[BANK0 ] int 
  7789 ;;  aexp            1   56[BANK0 ] unsigned char 
  7790 ;;  bexp            1   55[BANK0 ] unsigned char 
  7791 ;;  sign            1   48[BANK0 ] unsigned char 
  7792 ;; Return value:  Size  Location     Type
  7793 ;;                  4   31[BANK0 ] unsigned char 
  7794 ;; Registers used:
  7795 ;;		wreg, status,2, status,0, btemp+1
  7796 ;; Tracked objects:
  7797 ;;		On entry : 0/0
  7798 ;;		On exit  : 0/0
  7799 ;;		Unchanged: 0/0
  7800 ;; Data sizes:     COMMON   BANK0   BANK1   BANK3   BANK2
  7801 ;;      Params:         0       8       0       0       0
  7802 ;;      Locals:         0      13       0       0       0
  7803 ;;      Temps:          0       5       0       0       0
  7804 ;;      Totals:         0      26       0       0       0
  7805 ;;Total ram usage:       26 bytes
  7806 ;; Hardware stack levels used:    1
  7807 ;; Hardware stack levels required when called:    2
  7808 ;; This function calls:
  7809 ;;		Nothing
  7810 ;; This function is called by:
  7811 ;;		_LM35_ReadTemp
  7812 ;; This function uses a non-reentrant model
  7813 ;;
  7814                           
  7815                           
  7816                           ;psect for function ___fldiv
  7817  03A2                     ___fldiv:
  7818  03A2                     l2975:	
  7819                           ;incstack = 0
  7820                           ; Regs used in ___fldiv: [wreg+status,2+status,0+btemp+1]
  7821                           
  7822  03A2  1283               	bcf	3,5	;RP0=0, select bank0
  7823  03A3  1303               	bcf	3,6	;RP1=0, select bank0
  7824  03A4  0846               	movf	___fldiv@b+3,w
  7825  03A5  3980               	andlw	128
  7826  03A6  00FF               	movwf	btemp+1
  7827  03A7  087F               	movf	btemp+1,w
  7828  03A8  00D0               	movwf	___fldiv@sign
  7829  03A9                     l2977:
  7830  03A9  0846               	movf	___fldiv@b+3,w
  7831  03AA  00C7               	movwf	??___fldiv
  7832  03AB  0747               	addwf	??___fldiv,w
  7833  03AC  00FF               	movwf	btemp+1
  7834  03AD  087F               	movf	btemp+1,w
  7835  03AE  00D7               	movwf	___fldiv@bexp
  7836  03AF                     l2979:
  7837  03AF  1FC5               	btfss	___fldiv@b+2,7
  7838  03B0  2BB2               	goto	u2751
  7839  03B1  2BB3               	goto	u2750
  7840  03B2                     u2751:
  7841  03B2  2BB4               	goto	l2983
  7842  03B3                     u2750:
  7843  03B3                     l2981:
  7844  03B3  1457               	bsf	___fldiv@bexp,0
  7845  03B4                     l2983:
  7846  03B4  0857               	movf	___fldiv@bexp,w
  7847  03B5  1903               	btfsc	3,2
  7848  03B6  2BB8               	goto	u2761
  7849  03B7  2BB9               	goto	u2760
  7850  03B8                     u2761:
  7851  03B8  2BC9               	goto	l2993
  7852  03B9                     u2760:
  7853  03B9                     l2985:
  7854  03B9  0A57               	incf	___fldiv@bexp,w
  7855  03BA  1D03               	btfss	3,2
  7856  03BB  2BBD               	goto	u2771
  7857  03BC  2BBE               	goto	u2770
  7858  03BD                     u2771:
  7859  03BD  2BC6               	goto	l2989
  7860  03BE                     u2770:
  7861  03BE                     l2987:
  7862  03BE  3000               	movlw	0
  7863  03BF  00C6               	movwf	___fldiv@b+3
  7864  03C0  3000               	movlw	0
  7865  03C1  00C5               	movwf	___fldiv@b+2
  7866  03C2  3000               	movlw	0
  7867  03C3  00C4               	movwf	___fldiv@b+1
  7868  03C4  3000               	movlw	0
  7869  03C5  00C3               	movwf	___fldiv@b
  7870  03C6                     l2989:
  7871  03C6  17C5               	bsf	___fldiv@b+2,7
  7872  03C7                     l2991:
  7873  03C7  01C6               	clrf	___fldiv@b+3
  7874  03C8  2BD1               	goto	l2995
  7875  03C9                     l2993:
  7876  03C9  3000               	movlw	0
  7877  03CA  00C6               	movwf	___fldiv@b+3
  7878  03CB  3000               	movlw	0
  7879  03CC  00C5               	movwf	___fldiv@b+2
  7880  03CD  3000               	movlw	0
  7881  03CE  00C4               	movwf	___fldiv@b+1
  7882  03CF  3000               	movlw	0
  7883  03D0  00C3               	movwf	___fldiv@b
  7884  03D1                     l2995:
  7885  03D1  0842               	movf	___fldiv@a+3,w
  7886  03D2  3980               	andlw	128
  7887  03D3  00FF               	movwf	btemp+1
  7888  03D4  087F               	movf	btemp+1,w
  7889  03D5  06D0               	xorwf	___fldiv@sign,f
  7890  03D6                     l2997:
  7891  03D6  0842               	movf	___fldiv@a+3,w
  7892  03D7  00C7               	movwf	??___fldiv
  7893  03D8  0747               	addwf	??___fldiv,w
  7894  03D9  00FF               	movwf	btemp+1
  7895  03DA  087F               	movf	btemp+1,w
  7896  03DB  00D8               	movwf	___fldiv@aexp
  7897  03DC                     l2999:
  7898  03DC  1FC1               	btfss	___fldiv@a+2,7
  7899  03DD  2BDF               	goto	u2781
  7900  03DE  2BE0               	goto	u2780
  7901  03DF                     u2781:
  7902  03DF  2BE1               	goto	l3003
  7903  03E0                     u2780:
  7904  03E0                     l3001:
  7905  03E0  1458               	bsf	___fldiv@aexp,0
  7906  03E1                     l3003:
  7907  03E1  0858               	movf	___fldiv@aexp,w
  7908  03E2  1903               	btfsc	3,2
  7909  03E3  2BE5               	goto	u2791
  7910  03E4  2BE6               	goto	u2790
  7911  03E5                     u2791:
  7912  03E5  2BF6               	goto	l3013
  7913  03E6                     u2790:
  7914  03E6                     l3005:
  7915  03E6  0A58               	incf	___fldiv@aexp,w
  7916  03E7  1D03               	btfss	3,2
  7917  03E8  2BEA               	goto	u2801
  7918  03E9  2BEB               	goto	u2800
  7919  03EA                     u2801:
  7920  03EA  2BF3               	goto	l3009
  7921  03EB                     u2800:
  7922  03EB                     l3007:
  7923  03EB  3000               	movlw	0
  7924  03EC  00C2               	movwf	___fldiv@a+3
  7925  03ED  3000               	movlw	0
  7926  03EE  00C1               	movwf	___fldiv@a+2
  7927  03EF  3000               	movlw	0
  7928  03F0  00C0               	movwf	___fldiv@a+1
  7929  03F1  3000               	movlw	0
  7930  03F2  00BF               	movwf	___fldiv@a
  7931  03F3                     l3009:
  7932  03F3  17C1               	bsf	___fldiv@a+2,7
  7933  03F4                     l3011:
  7934  03F4  01C2               	clrf	___fldiv@a+3
  7935  03F5  2BFE               	goto	l1088
  7936  03F6                     l3013:
  7937  03F6  3000               	movlw	0
  7938  03F7  00C2               	movwf	___fldiv@a+3
  7939  03F8  3000               	movlw	0
  7940  03F9  00C1               	movwf	___fldiv@a+2
  7941  03FA  3000               	movlw	0
  7942  03FB  00C0               	movwf	___fldiv@a+1
  7943  03FC  3000               	movlw	0
  7944  03FD  00BF               	movwf	___fldiv@a
  7945  03FE                     l1088:
  7946  03FE  0842               	movf	___fldiv@a+3,w
  7947  03FF  0441               	iorwf	___fldiv@a+2,w
  7948  0400  0440               	iorwf	___fldiv@a+1,w
  7949  0401  043F               	iorwf	___fldiv@a,w
  7950  0402  1D03               	skipz
  7951  0403  2C05               	goto	u2811
  7952  0404  2C06               	goto	u2810
  7953  0405                     u2811:
  7954  0405  2C1F               	goto	l3023
  7955  0406                     u2810:
  7956  0406                     l3015:
  7957  0406  3000               	movlw	0
  7958  0407  00C6               	movwf	___fldiv@b+3
  7959  0408  3000               	movlw	0
  7960  0409  00C5               	movwf	___fldiv@b+2
  7961  040A  3000               	movlw	0
  7962  040B  00C4               	movwf	___fldiv@b+1
  7963  040C  3000               	movlw	0
  7964  040D  00C3               	movwf	___fldiv@b
  7965  040E  3080               	movlw	128
  7966  040F  04C5               	iorwf	___fldiv@b+2,f
  7967  0410  307F               	movlw	127
  7968  0411  04C6               	iorwf	___fldiv@b+3,f
  7969  0412                     l3017:
  7970  0412  0850               	movf	___fldiv@sign,w
  7971  0413  00FF               	movwf	btemp+1
  7972  0414  087F               	movf	btemp+1,w
  7973  0415  04C6               	iorwf	___fldiv@b+3,f
  7974  0416                     l3019:
  7975  0416  0846               	movf	___fldiv@b+3,w
  7976  0417  00C2               	movwf	?___fldiv+3
  7977  0418  0845               	movf	___fldiv@b+2,w
  7978  0419  00C1               	movwf	?___fldiv+2
  7979  041A  0844               	movf	___fldiv@b+1,w
  7980  041B  00C0               	movwf	?___fldiv+1
  7981  041C  0843               	movf	___fldiv@b,w
  7982  041D  00BF               	movwf	?___fldiv
  7983  041E  2D7E               	goto	l1090
  7984  041F                     l3023:
  7985  041F  0857               	movf	___fldiv@bexp,w
  7986  0420  1D03               	btfss	3,2
  7987  0421  2C23               	goto	u2821
  7988  0422  2C24               	goto	u2820
  7989  0423                     u2821:
  7990  0423  2C2D               	goto	l3029
  7991  0424                     u2820:
  7992  0424                     l3025:
  7993  0424  3000               	movlw	0
  7994  0425  00C2               	movwf	?___fldiv+3
  7995  0426  3000               	movlw	0
  7996  0427  00C1               	movwf	?___fldiv+2
  7997  0428  3000               	movlw	0
  7998  0429  00C0               	movwf	?___fldiv+1
  7999  042A  3000               	movlw	0
  8000  042B  00BF               	movwf	?___fldiv
  8001  042C  2D7E               	goto	l1090
  8002  042D                     l3029:
  8003  042D  0857               	movf	___fldiv@bexp,w
  8004  042E  00C7               	movwf	??___fldiv
  8005  042F  01C8               	clrf	??___fldiv+1
  8006  0430  0848               	movf	??___fldiv+1,w
  8007  0431  00CA               	movwf	??___fldiv+3
  8008  0432  0858               	movf	___fldiv@aexp,w
  8009  0433  0247               	subwf	??___fldiv,w
  8010  0434  00C9               	movwf	??___fldiv+2
  8011  0435  1C03               	skipc
  8012  0436  03CA               	decf	??___fldiv+3,f
  8013  0437  0849               	movf	??___fldiv+2,w
  8014  0438  3E7F               	addlw	127
  8015  0439  00D1               	movwf	___fldiv@new_exp
  8016  043A  084A               	movf	??___fldiv+3,w
  8017  043B  1803               	skipnc
  8018  043C  3E01               	addlw	1
  8019  043D  3E00               	addlw	0
  8020  043E  00D2               	movwf	___fldiv@new_exp+1
  8021  043F                     l3031:
  8022  043F  0846               	movf	___fldiv@b+3,w
  8023  0440  00CF               	movwf	___fldiv@rem+3
  8024  0441  0845               	movf	___fldiv@b+2,w
  8025  0442  00CE               	movwf	___fldiv@rem+2
  8026  0443  0844               	movf	___fldiv@b+1,w
  8027  0444  00CD               	movwf	___fldiv@rem+1
  8028  0445  0843               	movf	___fldiv@b,w
  8029  0446  00CC               	movwf	___fldiv@rem
  8030  0447                     l3033:
  8031  0447  3000               	movlw	0
  8032  0448  00C6               	movwf	___fldiv@b+3
  8033  0449  3000               	movlw	0
  8034  044A  00C5               	movwf	___fldiv@b+2
  8035  044B  3000               	movlw	0
  8036  044C  00C4               	movwf	___fldiv@b+1
  8037  044D  3000               	movlw	0
  8038  044E  00C3               	movwf	___fldiv@b
  8039  044F                     l3035:
  8040  044F  3000               	movlw	0
  8041  0450  00D6               	movwf	___fldiv@grs+3
  8042  0451  3000               	movlw	0
  8043  0452  00D5               	movwf	___fldiv@grs+2
  8044  0453  3000               	movlw	0
  8045  0454  00D4               	movwf	___fldiv@grs+1
  8046  0455  3000               	movlw	0
  8047  0456  00D3               	movwf	___fldiv@grs
  8048  0457                     l3037:
  8049  0457  01D8               	clrf	___fldiv@aexp
  8050  0458  2CA3               	goto	l3057
  8051  0459                     l3039:
  8052  0459  0858               	movf	___fldiv@aexp,w
  8053  045A  1903               	btfsc	3,2
  8054  045B  2C5D               	goto	u2831
  8055  045C  2C5E               	goto	u2830
  8056  045D                     u2831:
  8057  045D  2C7E               	goto	l3049
  8058  045E                     u2830:
  8059  045E                     l3041:
  8060  045E  3001               	movlw	1
  8061  045F  00C7               	movwf	??___fldiv
  8062  0460                     u2845:
  8063  0460  1003               	clrc
  8064  0461  0DCC               	rlf	___fldiv@rem,f
  8065  0462  0DCD               	rlf	___fldiv@rem+1,f
  8066  0463  0DCE               	rlf	___fldiv@rem+2,f
  8067  0464  0DCF               	rlf	___fldiv@rem+3,f
  8068  0465  0BC7               	decfsz	??___fldiv,f
  8069  0466  2C60               	goto	u2845
  8070  0467  3001               	movlw	1
  8071  0468  00C7               	movwf	??___fldiv
  8072  0469                     u2855:
  8073  0469  1003               	clrc
  8074  046A  0DC3               	rlf	___fldiv@b,f
  8075  046B  0DC4               	rlf	___fldiv@b+1,f
  8076  046C  0DC5               	rlf	___fldiv@b+2,f
  8077  046D  0DC6               	rlf	___fldiv@b+3,f
  8078  046E  0BC7               	decfsz	??___fldiv,f
  8079  046F  2C69               	goto	u2855
  8080  0470                     l3043:
  8081  0470  1FD6               	btfss	___fldiv@grs+3,7
  8082  0471  2C73               	goto	u2861
  8083  0472  2C74               	goto	u2860
  8084  0473                     u2861:
  8085  0473  2C75               	goto	l3047
  8086  0474                     u2860:
  8087  0474                     l3045:
  8088  0474  1443               	bsf	___fldiv@b,0
  8089  0475                     l3047:
  8090  0475  3001               	movlw	1
  8091  0476  00C7               	movwf	??___fldiv
  8092  0477                     u2875:
  8093  0477  1003               	clrc
  8094  0478  0DD3               	rlf	___fldiv@grs,f
  8095  0479  0DD4               	rlf	___fldiv@grs+1,f
  8096  047A  0DD5               	rlf	___fldiv@grs+2,f
  8097  047B  0DD6               	rlf	___fldiv@grs+3,f
  8098  047C  0BC7               	decfsz	??___fldiv,f
  8099  047D  2C77               	goto	u2875
  8100  047E                     l3049:
  8101  047E  0842               	movf	___fldiv@a+3,w
  8102  047F  024F               	subwf	___fldiv@rem+3,w
  8103  0480  1D03               	skipz
  8104  0481  2C8C               	goto	u2885
  8105  0482  0841               	movf	___fldiv@a+2,w
  8106  0483  024E               	subwf	___fldiv@rem+2,w
  8107  0484  1D03               	skipz
  8108  0485  2C8C               	goto	u2885
  8109  0486  0840               	movf	___fldiv@a+1,w
  8110  0487  024D               	subwf	___fldiv@rem+1,w
  8111  0488  1D03               	skipz
  8112  0489  2C8C               	goto	u2885
  8113  048A  083F               	movf	___fldiv@a,w
  8114  048B  024C               	subwf	___fldiv@rem,w
  8115  048C                     u2885:
  8116  048C  1C03               	skipc
  8117  048D  2C8F               	goto	u2881
  8118  048E  2C90               	goto	u2880
  8119  048F                     u2881:
  8120  048F  2C9F               	goto	l3055
  8121  0490                     u2880:
  8122  0490                     l3051:
  8123  0490  1756               	bsf	___fldiv@grs+3,6
  8124  0491                     l3053:
  8125  0491  083F               	movf	___fldiv@a,w
  8126  0492  02CC               	subwf	___fldiv@rem,f
  8127  0493  0840               	movf	___fldiv@a+1,w
  8128  0494  1C03               	skipc
  8129  0495  0F40               	incfsz	___fldiv@a+1,w
  8130  0496  02CD               	subwf	___fldiv@rem+1,f
  8131  0497  0841               	movf	___fldiv@a+2,w
  8132  0498  1C03               	skipc
  8133  0499  0F41               	incfsz	___fldiv@a+2,w
  8134  049A  02CE               	subwf	___fldiv@rem+2,f
  8135  049B  0842               	movf	___fldiv@a+3,w
  8136  049C  1C03               	skipc
  8137  049D  0F42               	incfsz	___fldiv@a+3,w
  8138  049E  02CF               	subwf	___fldiv@rem+3,f
  8139  049F                     l3055:
  8140  049F  3001               	movlw	1
  8141  04A0  00FF               	movwf	btemp+1
  8142  04A1  087F               	movf	btemp+1,w
  8143  04A2  07D8               	addwf	___fldiv@aexp,f
  8144  04A3                     l3057:
  8145  04A3  301A               	movlw	26
  8146  04A4  0258               	subwf	___fldiv@aexp,w
  8147  04A5  1C03               	skipc
  8148  04A6  2CA8               	goto	u2891
  8149  04A7  2CA9               	goto	u2890
  8150  04A8                     u2891:
  8151  04A8  2C59               	goto	l3039
  8152  04A9                     u2890:
  8153  04A9                     l3059:
  8154  04A9  084F               	movf	___fldiv@rem+3,w
  8155  04AA  044E               	iorwf	___fldiv@rem+2,w
  8156  04AB  044D               	iorwf	___fldiv@rem+1,w
  8157  04AC  044C               	iorwf	___fldiv@rem,w
  8158  04AD  1903               	skipnz
  8159  04AE  2CB0               	goto	u2901
  8160  04AF  2CB1               	goto	u2900
  8161  04B0                     u2901:
  8162  04B0  2CD0               	goto	l3073
  8163  04B1                     u2900:
  8164  04B1                     l3061:
  8165  04B1  1453               	bsf	___fldiv@grs,0
  8166  04B2  2CD0               	goto	l3073
  8167  04B3                     l3063:
  8168  04B3  3001               	movlw	1
  8169  04B4  00C7               	movwf	??___fldiv
  8170  04B5                     u2915:
  8171  04B5  1003               	clrc
  8172  04B6  0DC3               	rlf	___fldiv@b,f
  8173  04B7  0DC4               	rlf	___fldiv@b+1,f
  8174  04B8  0DC5               	rlf	___fldiv@b+2,f
  8175  04B9  0DC6               	rlf	___fldiv@b+3,f
  8176  04BA  0BC7               	decfsz	??___fldiv,f
  8177  04BB  2CB5               	goto	u2915
  8178  04BC                     l3065:
  8179  04BC  1FD6               	btfss	___fldiv@grs+3,7
  8180  04BD  2CBF               	goto	u2921
  8181  04BE  2CC0               	goto	u2920
  8182  04BF                     u2921:
  8183  04BF  2CC1               	goto	l3069
  8184  04C0                     u2920:
  8185  04C0                     l3067:
  8186  04C0  1443               	bsf	___fldiv@b,0
  8187  04C1                     l3069:
  8188  04C1  3001               	movlw	1
  8189  04C2  00C7               	movwf	??___fldiv
  8190  04C3                     u2935:
  8191  04C3  1003               	clrc
  8192  04C4  0DD3               	rlf	___fldiv@grs,f
  8193  04C5  0DD4               	rlf	___fldiv@grs+1,f
  8194  04C6  0DD5               	rlf	___fldiv@grs+2,f
  8195  04C7  0DD6               	rlf	___fldiv@grs+3,f
  8196  04C8  0BC7               	decfsz	??___fldiv,f
  8197  04C9  2CC3               	goto	u2935
  8198  04CA                     l3071:
  8199  04CA  30FF               	movlw	255
  8200  04CB  07D1               	addwf	___fldiv@new_exp,f
  8201  04CC  1803               	skipnc
  8202  04CD  0AD2               	incf	___fldiv@new_exp+1,f
  8203  04CE  30FF               	movlw	255
  8204  04CF  07D2               	addwf	___fldiv@new_exp+1,f
  8205  04D0                     l3073:
  8206  04D0  1FC5               	btfss	___fldiv@b+2,7
  8207  04D1  2CD3               	goto	u2941
  8208  04D2  2CD4               	goto	u2940
  8209  04D3                     u2941:
  8210  04D3  2CB3               	goto	l3063
  8211  04D4                     u2940:
  8212  04D4                     l3075:
  8213  04D4  01D8               	clrf	___fldiv@aexp
  8214  04D5                     l3077:
  8215  04D5  1FD6               	btfss	___fldiv@grs+3,7
  8216  04D6  2CD8               	goto	u2951
  8217  04D7  2CD9               	goto	u2950
  8218  04D8                     u2951:
  8219  04D8  2CF5               	goto	l3085
  8220  04D9                     u2950:
  8221  04D9                     l3079:
  8222  04D9  30FF               	movlw	255
  8223  04DA  0553               	andwf	___fldiv@grs,w
  8224  04DB  00C7               	movwf	??___fldiv
  8225  04DC  30FF               	movlw	255
  8226  04DD  0554               	andwf	___fldiv@grs+1,w
  8227  04DE  00C8               	movwf	??___fldiv+1
  8228  04DF  30FF               	movlw	255
  8229  04E0  0555               	andwf	___fldiv@grs+2,w
  8230  04E1  00C9               	movwf	??___fldiv+2
  8231  04E2  307F               	movlw	127
  8232  04E3  0556               	andwf	___fldiv@grs+3,w
  8233  04E4  00CA               	movwf	??___fldiv+3
  8234  04E5  084A               	movf	??___fldiv+3,w
  8235  04E6  0449               	iorwf	??___fldiv+2,w
  8236  04E7  0448               	iorwf	??___fldiv+1,w
  8237  04E8  0447               	iorwf	??___fldiv,w
  8238  04E9  1903               	skipnz
  8239  04EA  2CEC               	goto	u2961
  8240  04EB  2CED               	goto	u2960
  8241  04EC                     u2961:
  8242  04EC  2CF0               	goto	l1104
  8243  04ED                     u2960:
  8244  04ED                     l3081:
  8245  04ED  01D8               	clrf	___fldiv@aexp
  8246  04EE  0AD8               	incf	___fldiv@aexp,f
  8247  04EF  2CF5               	goto	l3085
  8248  04F0                     l1104:
  8249  04F0  1C43               	btfss	___fldiv@b,0
  8250  04F1  2CF3               	goto	u2971
  8251  04F2  2CF4               	goto	u2970
  8252  04F3                     u2971:
  8253  04F3  2CF5               	goto	l3085
  8254  04F4                     u2970:
  8255  04F4  2CED               	goto	l3081
  8256  04F5                     l3085:
  8257  04F5  0858               	movf	___fldiv@aexp,w
  8258  04F6  1903               	btfsc	3,2
  8259  04F7  2CF9               	goto	u2981
  8260  04F8  2CFA               	goto	u2980
  8261  04F9                     u2981:
  8262  04F9  2D2B               	goto	l3095
  8263  04FA                     u2980:
  8264  04FA                     l3087:
  8265  04FA  3001               	movlw	1
  8266  04FB  07C3               	addwf	___fldiv@b,f
  8267  04FC  3000               	movlw	0
  8268  04FD  1803               	skipnc
  8269  04FE  3001               	movlw	1
  8270  04FF  07C4               	addwf	___fldiv@b+1,f
  8271  0500  3000               	movlw	0
  8272  0501  1803               	skipnc
  8273  0502  3001               	movlw	1
  8274  0503  07C5               	addwf	___fldiv@b+2,f
  8275  0504  3000               	movlw	0
  8276  0505  1803               	skipnc
  8277  0506  3001               	movlw	1
  8278  0507  07C6               	addwf	___fldiv@b+3,f
  8279  0508                     l3089:
  8280  0508  1C46               	btfss	___fldiv@b+3,0
  8281  0509  2D0B               	goto	u2991
  8282  050A  2D0C               	goto	u2990
  8283  050B                     u2991:
  8284  050B  2D2B               	goto	l3095
  8285  050C                     u2990:
  8286  050C                     l3091:
  8287  050C  0843               	movf	___fldiv@b,w
  8288  050D  00C7               	movwf	??___fldiv
  8289  050E  0844               	movf	___fldiv@b+1,w
  8290  050F  00C8               	movwf	??___fldiv+1
  8291  0510  0845               	movf	___fldiv@b+2,w
  8292  0511  00C9               	movwf	??___fldiv+2
  8293  0512  0846               	movf	___fldiv@b+3,w
  8294  0513  00CA               	movwf	??___fldiv+3
  8295  0514  3001               	movlw	1
  8296  0515  00CB               	movwf	??___fldiv+4
  8297  0516                     u3005:
  8298  0516  0D4A               	rlf	??___fldiv+3,w
  8299  0517  0CCA               	rrf	??___fldiv+3,f
  8300  0518  0CC9               	rrf	??___fldiv+2,f
  8301  0519  0CC8               	rrf	??___fldiv+1,f
  8302  051A  0CC7               	rrf	??___fldiv,f
  8303  051B                     u3000:
  8304  051B  0BCB               	decfsz	??___fldiv+4,f
  8305  051C  2D16               	goto	u3005
  8306  051D  084A               	movf	??___fldiv+3,w
  8307  051E  00C6               	movwf	___fldiv@b+3
  8308  051F  0849               	movf	??___fldiv+2,w
  8309  0520  00C5               	movwf	___fldiv@b+2
  8310  0521  0848               	movf	??___fldiv+1,w
  8311  0522  00C4               	movwf	___fldiv@b+1
  8312  0523  0847               	movf	??___fldiv,w
  8313  0524  00C3               	movwf	___fldiv@b
  8314  0525                     l3093:
  8315  0525  3001               	movlw	1
  8316  0526  07D1               	addwf	___fldiv@new_exp,f
  8317  0527  1803               	skipnc
  8318  0528  0AD2               	incf	___fldiv@new_exp+1,f
  8319  0529  3000               	movlw	0
  8320  052A  07D2               	addwf	___fldiv@new_exp+1,f
  8321  052B                     l3095:
  8322  052B  0852               	movf	___fldiv@new_exp+1,w
  8323  052C  3A80               	xorlw	128
  8324  052D  00FF               	movwf	btemp+1
  8325  052E  3080               	movlw	128
  8326  052F  027F               	subwf	btemp+1,w
  8327  0530  1D03               	skipz
  8328  0531  2D34               	goto	u3015
  8329  0532  30FF               	movlw	255
  8330  0533  0251               	subwf	___fldiv@new_exp,w
  8331  0534                     u3015:
  8332  0534  1C03               	skipc
  8333  0535  2D37               	goto	u3011
  8334  0536  2D38               	goto	u3010
  8335  0537                     u3011:
  8336  0537  2D46               	goto	l3099
  8337  0538                     u3010:
  8338  0538                     l3097:
  8339  0538  30FF               	movlw	255
  8340  0539  1283               	bcf	3,5	;RP0=0, select bank0
  8341  053A  1303               	bcf	3,6	;RP1=0, select bank0
  8342  053B  00D1               	movwf	___fldiv@new_exp
  8343  053C  3000               	movlw	0
  8344  053D  00D2               	movwf	___fldiv@new_exp+1
  8345  053E  3000               	movlw	0
  8346  053F  00C6               	movwf	___fldiv@b+3
  8347  0540  3000               	movlw	0
  8348  0541  00C5               	movwf	___fldiv@b+2
  8349  0542  3000               	movlw	0
  8350  0543  00C4               	movwf	___fldiv@b+1
  8351  0544  3000               	movlw	0
  8352  0545  00C3               	movwf	___fldiv@b
  8353  0546                     l3099:
  8354  0546  1283               	bcf	3,5	;RP0=0, select bank0
  8355  0547  1303               	bcf	3,6	;RP1=0, select bank0
  8356  0548  0852               	movf	___fldiv@new_exp+1,w
  8357  0549  3A80               	xorlw	128
  8358  054A  00FF               	movwf	btemp+1
  8359  054B  3080               	movlw	128
  8360  054C  027F               	subwf	btemp+1,w
  8361  054D  1D03               	skipz
  8362  054E  2D51               	goto	u3025
  8363  054F  3001               	movlw	1
  8364  0550  0251               	subwf	___fldiv@new_exp,w
  8365  0551                     u3025:
  8366  0551  1803               	skipnc
  8367  0552  2D54               	goto	u3021
  8368  0553  2D55               	goto	u3020
  8369  0554                     u3021:
  8370  0554  2D62               	goto	l3107
  8371  0555                     u3020:
  8372  0555                     l3101:
  8373  0555  1283               	bcf	3,5	;RP0=0, select bank0
  8374  0556  1303               	bcf	3,6	;RP1=0, select bank0
  8375  0557  01D1               	clrf	___fldiv@new_exp
  8376  0558  01D2               	clrf	___fldiv@new_exp+1
  8377  0559                     l3103:
  8378  0559  3000               	movlw	0
  8379  055A  00C6               	movwf	___fldiv@b+3
  8380  055B  3000               	movlw	0
  8381  055C  00C5               	movwf	___fldiv@b+2
  8382  055D  3000               	movlw	0
  8383  055E  00C4               	movwf	___fldiv@b+1
  8384  055F  3000               	movlw	0
  8385  0560  00C3               	movwf	___fldiv@b
  8386  0561                     l3105:
  8387  0561  01D0               	clrf	___fldiv@sign
  8388  0562                     l3107:
  8389  0562  1283               	bcf	3,5	;RP0=0, select bank0
  8390  0563  1303               	bcf	3,6	;RP1=0, select bank0
  8391  0564  0851               	movf	___fldiv@new_exp,w
  8392  0565  00FF               	movwf	btemp+1
  8393  0566  087F               	movf	btemp+1,w
  8394  0567  00D7               	movwf	___fldiv@bexp
  8395  0568                     l3109:
  8396  0568  1C57               	btfss	___fldiv@bexp,0
  8397  0569  2D6B               	goto	u3031
  8398  056A  2D6C               	goto	u3030
  8399  056B                     u3031:
  8400  056B  2D6E               	goto	l3113
  8401  056C                     u3030:
  8402  056C                     l3111:
  8403  056C  17C5               	bsf	___fldiv@b+2,7
  8404  056D  2D72               	goto	l1112
  8405  056E                     l3113:
  8406  056E  307F               	movlw	127
  8407  056F  00FF               	movwf	btemp+1
  8408  0570  087F               	movf	btemp+1,w
  8409  0571  05C5               	andwf	___fldiv@b+2,f
  8410  0572                     l1112:
  8411  0572  0857               	movf	___fldiv@bexp,w
  8412  0573  00C7               	movwf	??___fldiv
  8413  0574  1003               	clrc
  8414  0575  0C47               	rrf	??___fldiv,w
  8415  0576  00FF               	movwf	btemp+1
  8416  0577  087F               	movf	btemp+1,w
  8417  0578  00C6               	movwf	___fldiv@b+3
  8418  0579  0850               	movf	___fldiv@sign,w
  8419  057A  00FF               	movwf	btemp+1
  8420  057B  087F               	movf	btemp+1,w
  8421  057C  04C6               	iorwf	___fldiv@b+3,f
  8422  057D  2C16               	goto	l3019
  8423  057E                     l1090:
  8424  057E  0008               	return
  8425  057F                     __end_of___fldiv:
  8426                           
  8427                           	psect	text44
  8428  0AD0                     __ptext44:	
  8429 ;; *************** function _Adc_readChannel *****************
  8430 ;; Defined at:
  8431 ;;		line 42 in file "ADC.c"
  8432 ;; Parameters:    Size  Location     Type
  8433 ;;  channel         1    wreg     enum E864
  8434 ;; Auto vars:     Size  Location     Type
  8435 ;;  channel         1    0[BANK0 ] enum E864
  8436 ;;  Adc_result      2    1[BANK0 ] unsigned short 
  8437 ;; Return value:  Size  Location     Type
  8438 ;;                  2    3[COMMON] unsigned short 
  8439 ;; Registers used:
  8440 ;;		wreg, status,2, status,0, btemp+1
  8441 ;; Tracked objects:
  8442 ;;		On entry : 0/0
  8443 ;;		On exit  : 0/0
  8444 ;;		Unchanged: 0/0
  8445 ;; Data sizes:     COMMON   BANK0   BANK1   BANK3   BANK2
  8446 ;;      Params:         2       0       0       0       0
  8447 ;;      Locals:         0       3       0       0       0
  8448 ;;      Temps:          2       0       0       0       0
  8449 ;;      Totals:         4       3       0       0       0
  8450 ;;Total ram usage:        7 bytes
  8451 ;; Hardware stack levels used:    1
  8452 ;; Hardware stack levels required when called:    2
  8453 ;; This function calls:
  8454 ;;		Nothing
  8455 ;; This function is called by:
  8456 ;;		_LM35_ReadTemp
  8457 ;; This function uses a non-reentrant model
  8458 ;;
  8459                           
  8460                           
  8461                           ;psect for function _Adc_readChannel
  8462  0AD0                     _Adc_readChannel:
  8463                           
  8464                           ;incstack = 0
  8465                           ; Regs used in _Adc_readChannel: [wreg+status,2+status,0+btemp+1]
  8466                           ;Adc_readChannel@channel stored from wreg
  8467  0AD0  1283               	bcf	3,5	;RP0=0, select bank0
  8468  0AD1  1303               	bcf	3,6	;RP1=0, select bank0
  8469  0AD2  00A0               	movwf	Adc_readChannel@channel
  8470  0AD3                     l4143:
  8471                           
  8472                           ;ADC.c: 43:     Adc_ValueGroupType Adc_result = 0;
  8473  0AD3  01A1               	clrf	Adc_readChannel@Adc_result
  8474  0AD4  01A2               	clrf	Adc_readChannel@Adc_result+1
  8475  0AD5                     l4145:
  8476                           
  8477                           ;ADC.c: 44:     if ((1U) == Adc_Status) {
  8478  0AD5  037A               	decf	_Adc_Status,w
  8479  0AD6  1D03               	btfss	3,2
  8480  0AD7  2AD9               	goto	u4401
  8481  0AD8  2ADA               	goto	u4400
  8482  0AD9                     u4401:
  8483  0AD9  2B04               	goto	l4159
  8484  0ADA                     u4400:
  8485  0ADA                     l4147:
  8486                           
  8487                           ;ADC.c: 45:         ADCON0 |= (1 << 0) ;
  8488  0ADA  141F               	bsf	31,0	;volatile
  8489  0ADB                     l4149:
  8490                           
  8491                           ;ADC.c: 46:         ADCON0 = (ADCON0 & 0xC7) | ((channel & 0x07) << 3);
  8492  0ADB  0820               	movf	Adc_readChannel@channel,w
  8493  0ADC  3907               	andlw	7
  8494  0ADD  00F5               	movwf	??_Adc_readChannel
  8495  0ADE  3003               	movlw	3
  8496  0ADF                     u4415:
  8497  0ADF  1003               	clrc
  8498  0AE0  0DF5               	rlf	??_Adc_readChannel,f
  8499  0AE1  3EFF               	addlw	-1
  8500  0AE2  1D03               	skipz
  8501  0AE3  2ADF               	goto	u4415
  8502  0AE4  081F               	movf	31,w	;volatile
  8503  0AE5  39C7               	andlw	199
  8504  0AE6  0475               	iorwf	??_Adc_readChannel,w
  8505  0AE7  009F               	movwf	31	;volatile
  8506  0AE8                     l4151:
  8507                           
  8508                           ;ADC.c: 47:         _delay((unsigned long)((3)*(8000000/4000.0)));
  8509  0AE8  3008               	movlw	8
  8510  0AE9  00F6               	movwf	??_Adc_readChannel+1
  8511  0AEA  30C9               	movlw	201
  8512  0AEB  00F5               	movwf	??_Adc_readChannel
  8513  0AEC                     u4907:
  8514  0AEC  0BF5               	decfsz	??_Adc_readChannel,f
  8515  0AED  2AEC               	goto	u4907
  8516  0AEE  0BF6               	decfsz	??_Adc_readChannel+1,f
  8517  0AEF  2AEC               	goto	u4907
  8518  0AF0  2AF1               	nop2
  8519  0AF1                     l4153:
  8520                           
  8521                           ;ADC.c: 48:         (ADCON0|=(1<<2));
  8522  0AF1  1283               	bcf	3,5	;RP0=0, select bank0
  8523  0AF2  1303               	bcf	3,6	;RP1=0, select bank0
  8524  0AF3  151F               	bsf	31,2	;volatile
  8525  0AF4                     l24:	
  8526                           ;ADC.c: 49:         while ((ADCON0 & (1<<2)));
  8527                           
  8528  0AF4  191F               	btfsc	31,2	;volatile
  8529  0AF5  2AF7               	goto	u4421
  8530  0AF6  2AF8               	goto	u4420
  8531  0AF7                     u4421:
  8532  0AF7  2AF4               	goto	l24
  8533  0AF8                     u4420:
  8534  0AF8                     l4155:
  8535                           
  8536                           ;ADC.c: 51:         ADCON0 &= ~(1 << 0) ;
  8537  0AF8  30FE               	movlw	254
  8538  0AF9  00FF               	movwf	btemp+1
  8539  0AFA  087F               	movf	btemp+1,w
  8540  0AFB  059F               	andwf	31,f	;volatile
  8541  0AFC                     l4157:
  8542                           
  8543                           ;ADC.c: 52:         Adc_result =(ADRESH<<8) + ADRESL ;
  8544  0AFC  081E               	movf	30,w	;volatile
  8545  0AFD  00A2               	movwf	Adc_readChannel@Adc_result+1
  8546  0AFE  1683               	bsf	3,5	;RP0=1, select bank1
  8547  0AFF  1303               	bcf	3,6	;RP1=0, select bank1
  8548  0B00  081E               	movf	30,w	;volatile
  8549  0B01  1283               	bcf	3,5	;RP0=0, select bank0
  8550  0B02  1303               	bcf	3,6	;RP1=0, select bank0
  8551  0B03  00A1               	movwf	Adc_readChannel@Adc_result
  8552  0B04                     l4159:
  8553                           
  8554                           ;ADC.c: 55:     return Adc_result;
  8555  0B04  0822               	movf	Adc_readChannel@Adc_result+1,w
  8556  0B05  00F4               	movwf	?_Adc_readChannel+1
  8557  0B06  0821               	movf	Adc_readChannel@Adc_result,w
  8558  0B07  00F3               	movwf	?_Adc_readChannel
  8559  0B08                     l27:
  8560  0B08  0008               	return
  8561  0B09                     __end_of_Adc_readChannel:
  8562                           
  8563                           	psect	text45
  8564  0802                     __ptext45:	
  8565 ;; *************** function _LM35_Init *****************
  8566 ;; Defined at:
  8567 ;;		line 22 in file "LM35.c"
  8568 ;; Parameters:    Size  Location     Type
  8569 ;;		None
  8570 ;; Auto vars:     Size  Location     Type
  8571 ;;		None
  8572 ;; Return value:  Size  Location     Type
  8573 ;;                  1    wreg      void 
  8574 ;; Registers used:
  8575 ;;		wreg, fsr0l, fsr0h, status,2, status,0, btemp+1, pclath, cstack
  8576 ;; Tracked objects:
  8577 ;;		On entry : 0/0
  8578 ;;		On exit  : 0/0
  8579 ;;		Unchanged: 0/0
  8580 ;; Data sizes:     COMMON   BANK0   BANK1   BANK3   BANK2
  8581 ;;      Params:         0       0       0       0       0
  8582 ;;      Locals:         0       0       0       0       0
  8583 ;;      Temps:          0       0       0       0       0
  8584 ;;      Totals:         0       0       0       0       0
  8585 ;;Total ram usage:        0 bytes
  8586 ;; Hardware stack levels used:    1
  8587 ;; Hardware stack levels required when called:    3
  8588 ;; This function calls:
  8589 ;;		_Port_SetDirection
  8590 ;;		_lm35_setConfigurations
  8591 ;; This function is called by:
  8592 ;;		_EWH_initTask
  8593 ;; This function uses a non-reentrant model
  8594 ;;
  8595                           
  8596                           
  8597                           ;psect for function _LM35_Init
  8598  0802                     _LM35_Init:
  8599  0802                     l4329:	
  8600                           ;incstack = 0
  8601                           ; Regs used in _LM35_Init: [wreg-fsr0h+status,2+status,0+btemp+1+pclath+cstack]
  8602                           
  8603                           
  8604                           ;LM35.c: 24:  lm35_setConfigurations() ;
  8605  0802  120A  118A  27F6  120A  158A  	fcall	_lm35_setConfigurations
  8606  0807                     l4331:
  8607                           
  8608                           ;LM35.c: 25:     Port_SetDirection(&g_lm35_config);
  8609  0807  30E2               	movlw	(low (_g_lm35_config| 0))& (0+255)
  8610  0808  120A  158A  278C  120A  158A  	fcall	_Port_SetDirection
  8611  080D                     l174:
  8612  080D  0008               	return
  8613  080E                     __end_of_LM35_Init:
  8614                           
  8615                           	psect	text46
  8616  07F6                     __ptext46:	
  8617 ;; *************** function _lm35_setConfigurations *****************
  8618 ;; Defined at:
  8619 ;;		line 16 in file "LM35.c"
  8620 ;; Parameters:    Size  Location     Type
  8621 ;;		None
  8622 ;; Auto vars:     Size  Location     Type
  8623 ;;		None
  8624 ;; Return value:  Size  Location     Type
  8625 ;;                  1    wreg      void 
  8626 ;; Registers used:
  8627 ;;		wreg, status,2, btemp+1
  8628 ;; Tracked objects:
  8629 ;;		On entry : 0/0
  8630 ;;		On exit  : 0/0
  8631 ;;		Unchanged: 0/0
  8632 ;; Data sizes:     COMMON   BANK0   BANK1   BANK3   BANK2
  8633 ;;      Params:         0       0       0       0       0
  8634 ;;      Locals:         0       0       0       0       0
  8635 ;;      Temps:          0       0       0       0       0
  8636 ;;      Totals:         0       0       0       0       0
  8637 ;;Total ram usage:        0 bytes
  8638 ;; Hardware stack levels used:    1
  8639 ;; Hardware stack levels required when called:    2
  8640 ;; This function calls:
  8641 ;;		Nothing
  8642 ;; This function is called by:
  8643 ;;		_LM35_Init
  8644 ;; This function uses a non-reentrant model
  8645 ;;
  8646                           
  8647                           
  8648                           ;psect for function _lm35_setConfigurations
  8649  07F6                     _lm35_setConfigurations:
  8650  07F6                     l3313:	
  8651                           ;incstack = 0
  8652                           ; Regs used in _lm35_setConfigurations: [wreg+status,2+btemp+1]
  8653                           
  8654                           
  8655                           ;LM35.c: 18:     g_lm35_config.port = (uint8)0 ;
  8656  07F6  1683               	bsf	3,5	;RP0=1, select bank1
  8657  07F7  1303               	bcf	3,6	;RP1=0, select bank1
  8658  07F8  01E2               	clrf	_g_lm35_config^(0+128)
  8659  07F9                     l3315:
  8660                           
  8661                           ;LM35.c: 19:     g_lm35_config.pin_num = (uint8)2 ;
  8662  07F9  3002               	movlw	2
  8663  07FA  00FF               	movwf	btemp+1
  8664  07FB  087F               	movf	btemp+1,w
  8665  07FC  00E3               	movwf	(_g_lm35_config^(0+128)+1)
  8666  07FD                     l3317:
  8667                           
  8668                           ;LM35.c: 20:     g_lm35_config.direction = (1U) ;
  8669  07FD  01E4               	clrf	(_g_lm35_config^(0+128)+2)
  8670  07FE  0AE4               	incf	(_g_lm35_config^(0+128)+2),f
  8671  07FF                     l171:
  8672  07FF  0008               	return
  8673  0800                     __end_of_lm35_setConfigurations:
  8674                           
  8675                           	psect	text47
  8676  080E                     __ptext47:	
  8677 ;; *************** function _LED_init *****************
  8678 ;; Defined at:
  8679 ;;		line 24 in file "Led.c"
  8680 ;; Parameters:    Size  Location     Type
  8681 ;;		None
  8682 ;; Auto vars:     Size  Location     Type
  8683 ;;		None
  8684 ;; Return value:  Size  Location     Type
  8685 ;;                  1    wreg      void 
  8686 ;; Registers used:
  8687 ;;		wreg, fsr0l, fsr0h, status,2, status,0, btemp+1, pclath, cstack
  8688 ;; Tracked objects:
  8689 ;;		On entry : 0/0
  8690 ;;		On exit  : 0/0
  8691 ;;		Unchanged: 0/0
  8692 ;; Data sizes:     COMMON   BANK0   BANK1   BANK3   BANK2
  8693 ;;      Params:         0       0       0       0       0
  8694 ;;      Locals:         0       0       0       0       0
  8695 ;;      Temps:          0       0       0       0       0
  8696 ;;      Totals:         0       0       0       0       0
  8697 ;;Total ram usage:        0 bytes
  8698 ;; Hardware stack levels used:    1
  8699 ;; Hardware stack levels required when called:    3
  8700 ;; This function calls:
  8701 ;;		_Dio_WriteChannel
  8702 ;;		_LED_setConfigurations
  8703 ;;		_Port_SetDirection
  8704 ;; This function is called by:
  8705 ;;		_EWH_initTask
  8706 ;; This function uses a non-reentrant model
  8707 ;;
  8708                           
  8709                           
  8710                           ;psect for function _LED_init
  8711  080E                     _LED_init:
  8712  080E                     l4403:	
  8713                           ;incstack = 0
  8714                           ; Regs used in _LED_init: [wreg-fsr0h+status,2+status,0+btemp+1+pclath+cstack]
  8715                           
  8716                           
  8717                           ;Led.c: 26:  LED_setConfigurations();
  8718  080E  160A  118A  279A  120A  158A  	fcall	_LED_setConfigurations
  8719  0813                     l4405:
  8720                           
  8721                           ;Led.c: 27:  Port_SetDirection(&g_LED_Config);
  8722  0813  30D6               	movlw	(low (_g_LED_Config| 0))& (0+255)
  8723  0814  120A  158A  278C  120A  158A  	fcall	_Port_SetDirection
  8724  0819                     l4407:
  8725                           
  8726                           ;Led.c: 28:  Dio_WriteChannel((uint8)0x07,0x00U);
  8727  0819  01F3               	clrf	Dio_WriteChannel@Level
  8728  081A  3007               	movlw	7
  8729  081B  120A  118A  26E5  120A  158A  	fcall	_Dio_WriteChannel
  8730  0820                     l588:
  8731  0820  0008               	return
  8732  0821                     __end_of_LED_init:
  8733                           
  8734                           	psect	text48
  8735  179A                     __ptext48:	
  8736 ;; *************** function _LED_setConfigurations *****************
  8737 ;; Defined at:
  8738 ;;		line 17 in file "Led.c"
  8739 ;; Parameters:    Size  Location     Type
  8740 ;;		None
  8741 ;; Auto vars:     Size  Location     Type
  8742 ;;		None
  8743 ;; Return value:  Size  Location     Type
  8744 ;;                  1    wreg      void 
  8745 ;; Registers used:
  8746 ;;		wreg, status,2, btemp+1
  8747 ;; Tracked objects:
  8748 ;;		On entry : 0/0
  8749 ;;		On exit  : 0/0
  8750 ;;		Unchanged: 0/0
  8751 ;; Data sizes:     COMMON   BANK0   BANK1   BANK3   BANK2
  8752 ;;      Params:         0       0       0       0       0
  8753 ;;      Locals:         0       0       0       0       0
  8754 ;;      Temps:          0       0       0       0       0
  8755 ;;      Totals:         0       0       0       0       0
  8756 ;;Total ram usage:        0 bytes
  8757 ;; Hardware stack levels used:    1
  8758 ;; Hardware stack levels required when called:    2
  8759 ;; This function calls:
  8760 ;;		Nothing
  8761 ;; This function is called by:
  8762 ;;		_LED_init
  8763 ;; This function uses a non-reentrant model
  8764 ;;
  8765                           
  8766                           
  8767                           ;psect for function _LED_setConfigurations
  8768  179A                     _LED_setConfigurations:
  8769  179A                     l3453:	
  8770                           ;incstack = 0
  8771                           ; Regs used in _LED_setConfigurations: [wreg+status,2+btemp+1]
  8772                           
  8773                           
  8774                           ;Led.c: 19:  g_LED_Config.port = (uint8)1;
  8775  179A  1683               	bsf	3,5	;RP0=1, select bank1
  8776  179B  1303               	bcf	3,6	;RP1=0, select bank1
  8777  179C  01D6               	clrf	_g_LED_Config^(0+128)
  8778  179D  0AD6               	incf	_g_LED_Config^(0+128),f
  8779  179E                     l3455:
  8780                           
  8781                           ;Led.c: 20:  g_LED_Config.pin_num = (uint8)7;
  8782  179E  3007               	movlw	7
  8783  179F  00FF               	movwf	btemp+1
  8784  17A0  087F               	movf	btemp+1,w
  8785  17A1  00D7               	movwf	(_g_LED_Config^(0+128)+1)
  8786  17A2                     l3457:
  8787                           
  8788                           ;Led.c: 21:  g_LED_Config.direction = (0U);
  8789  17A2  01D8               	clrf	(_g_LED_Config^(0+128)+2)
  8790  17A3                     l585:
  8791  17A3  0008               	return
  8792  17A4                     __end_of_LED_setConfigurations:
  8793                           
  8794                           	psect	text49
  8795  17CD                     __ptext49:	
  8796 ;; *************** function _Heater_init *****************
  8797 ;; Defined at:
  8798 ;;		line 24 in file "Heater.c"
  8799 ;; Parameters:    Size  Location     Type
  8800 ;;		None
  8801 ;; Auto vars:     Size  Location     Type
  8802 ;;		None
  8803 ;; Return value:  Size  Location     Type
  8804 ;;                  1    wreg      void 
  8805 ;; Registers used:
  8806 ;;		wreg, fsr0l, fsr0h, status,2, status,0, btemp+1, pclath, cstack
  8807 ;; Tracked objects:
  8808 ;;		On entry : 0/0
  8809 ;;		On exit  : 0/0
  8810 ;;		Unchanged: 0/0
  8811 ;; Data sizes:     COMMON   BANK0   BANK1   BANK3   BANK2
  8812 ;;      Params:         0       0       0       0       0
  8813 ;;      Locals:         0       0       0       0       0
  8814 ;;      Temps:          0       0       0       0       0
  8815 ;;      Totals:         0       0       0       0       0
  8816 ;;Total ram usage:        0 bytes
  8817 ;; Hardware stack levels used:    1
  8818 ;; Hardware stack levels required when called:    4
  8819 ;; This function calls:
  8820 ;;		_Heater_Off
  8821 ;;		_Heater_setConfigurations
  8822 ;;		_Port_SetDirection
  8823 ;; This function is called by:
  8824 ;;		_EWH_initTask
  8825 ;; This function uses a non-reentrant model
  8826 ;;
  8827                           
  8828                           
  8829                           ;psect for function _Heater_init
  8830  17CD                     _Heater_init:
  8831  17CD                     l4323:	
  8832                           ;incstack = 0
  8833                           ; Regs used in _Heater_init: [wreg-fsr0h+status,2+status,0+btemp+1+pclath+cstack]
  8834                           
  8835                           
  8836                           ;Heater.c: 25:     Heater_setConfigurations();
  8837  17CD  160A  118A  27B0  160A  118A  	fcall	_Heater_setConfigurations
  8838  17D2                     l4325:
  8839                           
  8840                           ;Heater.c: 26:     Port_SetDirection(&g_HeatingElement_config);
  8841  17D2  30E5               	movlw	(low (_g_HeatingElement_config| 0))& (0+255)
  8842  17D3  120A  158A  278C  160A  118A  	fcall	_Port_SetDirection
  8843  17D8                     l4327:
  8844                           
  8845                           ;Heater.c: 27:     Heater_Off();
  8846  17D8  160A  118A  2750  160A  118A  	fcall	_Heater_Off
  8847  17DD                     l156:
  8848  17DD  0008               	return
  8849  17DE                     __end_of_Heater_init:
  8850                           
  8851                           	psect	text50
  8852  17B0                     __ptext50:	
  8853 ;; *************** function _Heater_setConfigurations *****************
  8854 ;; Defined at:
  8855 ;;		line 17 in file "Heater.c"
  8856 ;; Parameters:    Size  Location     Type
  8857 ;;		None
  8858 ;; Auto vars:     Size  Location     Type
  8859 ;;		None
  8860 ;; Return value:  Size  Location     Type
  8861 ;;                  1    wreg      void 
  8862 ;; Registers used:
  8863 ;;		wreg, status,2, btemp+1
  8864 ;; Tracked objects:
  8865 ;;		On entry : 0/0
  8866 ;;		On exit  : 0/0
  8867 ;;		Unchanged: 0/0
  8868 ;; Data sizes:     COMMON   BANK0   BANK1   BANK3   BANK2
  8869 ;;      Params:         0       0       0       0       0
  8870 ;;      Locals:         0       0       0       0       0
  8871 ;;      Temps:          0       0       0       0       0
  8872 ;;      Totals:         0       0       0       0       0
  8873 ;;Total ram usage:        0 bytes
  8874 ;; Hardware stack levels used:    1
  8875 ;; Hardware stack levels required when called:    2
  8876 ;; This function calls:
  8877 ;;		Nothing
  8878 ;; This function is called by:
  8879 ;;		_Heater_init
  8880 ;; This function uses a non-reentrant model
  8881 ;;
  8882                           
  8883                           
  8884                           ;psect for function _Heater_setConfigurations
  8885  17B0                     _Heater_setConfigurations:
  8886  17B0                     l3309:	
  8887                           ;incstack = 0
  8888                           ; Regs used in _Heater_setConfigurations: [wreg+status,2+btemp+1]
  8889                           
  8890                           
  8891                           ;Heater.c: 19:     g_HeatingElement_config.port = (uint8)2;
  8892  17B0  3002               	movlw	2
  8893  17B1  00FF               	movwf	btemp+1
  8894  17B2  087F               	movf	btemp+1,w
  8895  17B3  1683               	bsf	3,5	;RP0=1, select bank1
  8896  17B4  1303               	bcf	3,6	;RP1=0, select bank1
  8897  17B5  00E5               	movwf	_g_HeatingElement_config^(0+128)
  8898                           
  8899                           ;Heater.c: 20:     g_HeatingElement_config.pin_num = (uint8)5;
  8900  17B6  3005               	movlw	5
  8901  17B7  00FF               	movwf	btemp+1
  8902  17B8  087F               	movf	btemp+1,w
  8903  17B9  00E6               	movwf	(_g_HeatingElement_config^(0+128)+1)
  8904  17BA                     l3311:
  8905                           
  8906                           ;Heater.c: 21:     g_HeatingElement_config.direction = (0U);
  8907  17BA  01E7               	clrf	(_g_HeatingElement_config^(0+128)+2)
  8908  17BB                     l153:
  8909  17BB  0008               	return
  8910  17BC                     __end_of_Heater_setConfigurations:
  8911                           
  8912                           	psect	text51
  8913  1750                     __ptext51:	
  8914 ;; *************** function _Heater_Off *****************
  8915 ;; Defined at:
  8916 ;;		line 34 in file "Heater.c"
  8917 ;; Parameters:    Size  Location     Type
  8918 ;;		None
  8919 ;; Auto vars:     Size  Location     Type
  8920 ;;		None
  8921 ;; Return value:  Size  Location     Type
  8922 ;;                  1    wreg      void 
  8923 ;; Registers used:
  8924 ;;		wreg, fsr0l, fsr0h, status,2, status,0, btemp+1, pclath, cstack
  8925 ;; Tracked objects:
  8926 ;;		On entry : 0/0
  8927 ;;		On exit  : 0/0
  8928 ;;		Unchanged: 0/0
  8929 ;; Data sizes:     COMMON   BANK0   BANK1   BANK3   BANK2
  8930 ;;      Params:         0       0       0       0       0
  8931 ;;      Locals:         0       0       0       0       0
  8932 ;;      Temps:          0       0       0       0       0
  8933 ;;      Totals:         0       0       0       0       0
  8934 ;;Total ram usage:        0 bytes
  8935 ;; Hardware stack levels used:    1
  8936 ;; Hardware stack levels required when called:    3
  8937 ;; This function calls:
  8938 ;;		_Dio_WriteChannel
  8939 ;; This function is called by:
  8940 ;;		_Heater_init
  8941 ;;		_TempControl_State
  8942 ;;		_EWH_updateState
  8943 ;; This function uses a non-reentrant model
  8944 ;;
  8945                           
  8946                           
  8947                           ;psect for function _Heater_Off
  8948  1750                     _Heater_Off:
  8949  1750                     l2877:	
  8950                           ;incstack = 0
  8951                           ; Regs used in _Heater_Off: [wreg-fsr0h+status,2+status,0+btemp+1+pclath+cstack]
  8952                           
  8953                           
  8954                           ;Heater.c: 35:     Dio_WriteChannel((uint8)0x04, 0x00U);
  8955  1750  01F3               	clrf	Dio_WriteChannel@Level
  8956  1751  3004               	movlw	4
  8957  1752  120A  118A  26E5  160A  118A  	fcall	_Dio_WriteChannel
  8958  1757                     l162:
  8959  1757  0008               	return
  8960  1758                     __end_of_Heater_Off:
  8961                           
  8962                           	psect	text52
  8963  17BC                     __ptext52:	
  8964 ;; *************** function _Fan_init *****************
  8965 ;; Defined at:
  8966 ;;		line 25 in file "fan.c"
  8967 ;; Parameters:    Size  Location     Type
  8968 ;;		None
  8969 ;; Auto vars:     Size  Location     Type
  8970 ;;		None
  8971 ;; Return value:  Size  Location     Type
  8972 ;;                  1    wreg      void 
  8973 ;; Registers used:
  8974 ;;		wreg, fsr0l, fsr0h, status,2, status,0, btemp+1, pclath, cstack
  8975 ;; Tracked objects:
  8976 ;;		On entry : 0/0
  8977 ;;		On exit  : 0/0
  8978 ;;		Unchanged: 0/0
  8979 ;; Data sizes:     COMMON   BANK0   BANK1   BANK3   BANK2
  8980 ;;      Params:         0       0       0       0       0
  8981 ;;      Locals:         0       0       0       0       0
  8982 ;;      Temps:          0       0       0       0       0
  8983 ;;      Totals:         0       0       0       0       0
  8984 ;;Total ram usage:        0 bytes
  8985 ;; Hardware stack levels used:    1
  8986 ;; Hardware stack levels required when called:    4
  8987 ;; This function calls:
  8988 ;;		_Fan_Off
  8989 ;;		_Port_SetDirection
  8990 ;;		_fan_setConfigurations
  8991 ;; This function is called by:
  8992 ;;		_EWH_initTask
  8993 ;; This function uses a non-reentrant model
  8994 ;;
  8995                           
  8996                           
  8997                           ;psect for function _Fan_init
  8998  17BC                     _Fan_init:
  8999  17BC                     l4335:	
  9000                           ;incstack = 0
  9001                           ; Regs used in _Fan_init: [wreg-fsr0h+status,2+status,0+btemp+1+pclath+cstack]
  9002                           
  9003                           
  9004                           ;fan.c: 26:     fan_setConfigurations();
  9005  17BC  160A  118A  27A4  160A  118A  	fcall	_fan_setConfigurations
  9006  17C1                     l4337:
  9007                           
  9008                           ;fan.c: 27:     Port_SetDirection(&g_coolingElement_config);
  9009  17C1  30DF               	movlw	(low (_g_coolingElement_config| 0))& (0+255)
  9010  17C2  120A  158A  278C  160A  118A  	fcall	_Port_SetDirection
  9011  17C7                     l4339:
  9012                           
  9013                           ;fan.c: 28:     Fan_Off();
  9014  17C7  160A  118A  2748  160A  118A  	fcall	_Fan_Off
  9015  17CC                     l269:
  9016  17CC  0008               	return
  9017  17CD                     __end_of_Fan_init:
  9018                           
  9019                           	psect	text53
  9020  17A4                     __ptext53:	
  9021 ;; *************** function _fan_setConfigurations *****************
  9022 ;; Defined at:
  9023 ;;		line 18 in file "fan.c"
  9024 ;; Parameters:    Size  Location     Type
  9025 ;;		None
  9026 ;; Auto vars:     Size  Location     Type
  9027 ;;		None
  9028 ;; Return value:  Size  Location     Type
  9029 ;;                  1    wreg      void 
  9030 ;; Registers used:
  9031 ;;		wreg, status,2, btemp+1
  9032 ;; Tracked objects:
  9033 ;;		On entry : 0/0
  9034 ;;		On exit  : 0/0
  9035 ;;		Unchanged: 0/0
  9036 ;; Data sizes:     COMMON   BANK0   BANK1   BANK3   BANK2
  9037 ;;      Params:         0       0       0       0       0
  9038 ;;      Locals:         0       0       0       0       0
  9039 ;;      Temps:          0       0       0       0       0
  9040 ;;      Totals:         0       0       0       0       0
  9041 ;;Total ram usage:        0 bytes
  9042 ;; Hardware stack levels used:    1
  9043 ;; Hardware stack levels required when called:    2
  9044 ;; This function calls:
  9045 ;;		Nothing
  9046 ;; This function is called by:
  9047 ;;		_Fan_init
  9048 ;; This function uses a non-reentrant model
  9049 ;;
  9050                           
  9051                           
  9052                           ;psect for function _fan_setConfigurations
  9053  17A4                     _fan_setConfigurations:
  9054  17A4                     l3383:	
  9055                           ;incstack = 0
  9056                           ; Regs used in _fan_setConfigurations: [wreg+status,2+btemp+1]
  9057                           
  9058                           
  9059                           ;fan.c: 20:     g_coolingElement_config.port = (uint8)2;
  9060  17A4  3002               	movlw	2
  9061  17A5  00FF               	movwf	btemp+1
  9062  17A6  087F               	movf	btemp+1,w
  9063  17A7  1683               	bsf	3,5	;RP0=1, select bank1
  9064  17A8  1303               	bcf	3,6	;RP1=0, select bank1
  9065  17A9  00DF               	movwf	_g_coolingElement_config^(0+128)
  9066                           
  9067                           ;fan.c: 21:     g_coolingElement_config.pin_num = (uint8)2;
  9068  17AA  3002               	movlw	2
  9069  17AB  00FF               	movwf	btemp+1
  9070  17AC  087F               	movf	btemp+1,w
  9071  17AD  00E0               	movwf	(_g_coolingElement_config^(0+128)+1)
  9072  17AE                     l3385:
  9073                           
  9074                           ;fan.c: 22:     g_coolingElement_config.direction = (0U);
  9075  17AE  01E1               	clrf	(_g_coolingElement_config^(0+128)+2)
  9076  17AF                     l266:
  9077  17AF  0008               	return
  9078  17B0                     __end_of_fan_setConfigurations:
  9079                           
  9080                           	psect	text54
  9081  1748                     __ptext54:	
  9082 ;; *************** function _Fan_Off *****************
  9083 ;; Defined at:
  9084 ;;		line 35 in file "fan.c"
  9085 ;; Parameters:    Size  Location     Type
  9086 ;;		None
  9087 ;; Auto vars:     Size  Location     Type
  9088 ;;		None
  9089 ;; Return value:  Size  Location     Type
  9090 ;;                  1    wreg      void 
  9091 ;; Registers used:
  9092 ;;		wreg, fsr0l, fsr0h, status,2, status,0, btemp+1, pclath, cstack
  9093 ;; Tracked objects:
  9094 ;;		On entry : 0/0
  9095 ;;		On exit  : 0/0
  9096 ;;		Unchanged: 0/0
  9097 ;; Data sizes:     COMMON   BANK0   BANK1   BANK3   BANK2
  9098 ;;      Params:         0       0       0       0       0
  9099 ;;      Locals:         0       0       0       0       0
  9100 ;;      Temps:          0       0       0       0       0
  9101 ;;      Totals:         0       0       0       0       0
  9102 ;;Total ram usage:        0 bytes
  9103 ;; Hardware stack levels used:    1
  9104 ;; Hardware stack levels required when called:    3
  9105 ;; This function calls:
  9106 ;;		_Dio_WriteChannel
  9107 ;; This function is called by:
  9108 ;;		_Fan_init
  9109 ;;		_TempControl_State
  9110 ;;		_EWH_updateState
  9111 ;; This function uses a non-reentrant model
  9112 ;;
  9113                           
  9114                           
  9115                           ;psect for function _Fan_Off
  9116  1748                     _Fan_Off:
  9117  1748                     l2887:	
  9118                           ;incstack = 0
  9119                           ; Regs used in _Fan_Off: [wreg-fsr0h+status,2+status,0+btemp+1+pclath+cstack]
  9120                           
  9121                           
  9122                           ;fan.c: 36:     Dio_WriteChannel((uint8)0x03, 0x00U);
  9123  1748  01F3               	clrf	Dio_WriteChannel@Level
  9124  1749  3003               	movlw	3
  9125  174A  120A  118A  26E5  160A  118A  	fcall	_Dio_WriteChannel
  9126  174F                     l275:
  9127  174F  0008               	return
  9128  1750                     __end_of_Fan_Off:
  9129                           
  9130                           	psect	text55
  9131  06E5                     __ptext55:	
  9132 ;; *************** function _Dio_WriteChannel *****************
  9133 ;; Defined at:
  9134 ;;		line 142 in file "DIO.c"
  9135 ;; Parameters:    Size  Location     Type
  9136 ;;  ChannelId       1    wreg     unsigned char 
  9137 ;;  Level           1    3[COMMON] unsigned char 
  9138 ;; Auto vars:     Size  Location     Type
  9139 ;;  ChannelId       1    3[BANK0 ] unsigned char 
  9140 ;;  port_ptr        2    1[BANK0 ] PTR volatile unsigned ch
  9141 ;;		 -> PORTE(1), PORTD(1), PORTC(1), PORTB(1), 
  9142 ;;		 -> PORTA(1), NULL(0), 
  9143 ;;  error           1    0[BANK0 ] unsigned char 
  9144 ;; Return value:  Size  Location     Type
  9145 ;;                  1    wreg      void 
  9146 ;; Registers used:
  9147 ;;		wreg, fsr0l, fsr0h, status,2, status,0, btemp+1
  9148 ;; Tracked objects:
  9149 ;;		On entry : 0/0
  9150 ;;		On exit  : 0/0
  9151 ;;		Unchanged: 0/0
  9152 ;; Data sizes:     COMMON   BANK0   BANK1   BANK3   BANK2
  9153 ;;      Params:         1       0       0       0       0
  9154 ;;      Locals:         0       4       0       0       0
  9155 ;;      Temps:          4       0       0       0       0
  9156 ;;      Totals:         5       4       0       0       0
  9157 ;;Total ram usage:        9 bytes
  9158 ;; Hardware stack levels used:    1
  9159 ;; Hardware stack levels required when called:    2
  9160 ;; This function calls:
  9161 ;;		Nothing
  9162 ;; This function is called by:
  9163 ;;		_Heater_On
  9164 ;;		_Heater_Off
  9165 ;;		_Fan_On
  9166 ;;		_Fan_Off
  9167 ;;		_LED_init
  9168 ;;		_LED_On
  9169 ;;		_LED_Off
  9170 ;; This function uses a non-reentrant model
  9171 ;;
  9172                           
  9173                           
  9174                           ;psect for function _Dio_WriteChannel
  9175  06E5                     _Dio_WriteChannel:
  9176                           
  9177                           ;incstack = 0
  9178                           ; Regs used in _Dio_WriteChannel: [wreg-fsr0h+status,2+status,0+btemp+1]
  9179                           ;Dio_WriteChannel@ChannelId stored from wreg
  9180  06E5  1283               	bcf	3,5	;RP0=0, select bank0
  9181  06E6  1303               	bcf	3,6	;RP1=0, select bank0
  9182  06E7  00A3               	movwf	Dio_WriteChannel@ChannelId
  9183  06E8                     l2681:
  9184                           
  9185                           ;DIO.c: 143: volatile uint8 *port_ptr = ((void *)0);
  9186  06E8  01A1               	clrf	Dio_WriteChannel@port_ptr
  9187  06E9  01A2               	clrf	Dio_WriteChannel@port_ptr+1
  9188                           
  9189                           ;DIO.c: 144:  boolean error = 0x00U;
  9190  06EA  01A0               	clrf	Dio_WriteChannel@error
  9191  06EB                     l2683:
  9192                           
  9193                           ;DIO.c: 146:  if ((0U) == Dio_status)
  9194  06EB  086F               	movf	_Dio_status,w
  9195  06EC  1D03               	btfss	3,2
  9196  06ED  2EEF               	goto	u2171
  9197  06EE  2EF0               	goto	u2170
  9198  06EF                     u2171:
  9199  06EF  2EF2               	goto	l2687
  9200  06F0                     u2170:
  9201  06F0                     l2685:
  9202                           
  9203                           ;DIO.c: 147:  {;DIO.c: 149:   error = 0x01U;
  9204  06F0  01A0               	clrf	Dio_WriteChannel@error
  9205  06F1  0AA0               	incf	Dio_WriteChannel@error,f
  9206  06F2                     l2687:	
  9207                           ;DIO.c: 151:  }
  9208                           
  9209                           
  9210                           ;DIO.c: 156:  if ((8U) <= ChannelId)
  9211  06F2  3008               	movlw	8
  9212  06F3  0223               	subwf	Dio_WriteChannel@ChannelId,w
  9213  06F4  1C03               	skipc
  9214  06F5  2EF7               	goto	u2181
  9215  06F6  2EF8               	goto	u2180
  9216  06F7                     u2181:
  9217  06F7  2EFA               	goto	l2691
  9218  06F8                     u2180:
  9219  06F8                     l2689:
  9220                           
  9221                           ;DIO.c: 157:  {;DIO.c: 159:   error = 0x01U;
  9222  06F8  01A0               	clrf	Dio_WriteChannel@error
  9223  06F9  0AA0               	incf	Dio_WriteChannel@error,f
  9224  06FA                     l2691:	
  9225                           ;DIO.c: 161:  }
  9226                           
  9227                           
  9228                           ;DIO.c: 167:  if (0x00U == error)
  9229  06FA  0820               	movf	Dio_WriteChannel@error,w
  9230  06FB  1D03               	btfss	3,2
  9231  06FC  2EFE               	goto	u2191
  9232  06FD  2EFF               	goto	u2190
  9233  06FE                     u2191:
  9234  06FE  2F79               	goto	l104
  9235  06FF                     u2190:
  9236  06FF  2F19               	goto	l2697
  9237  0700                     l93:	
  9238                           ;DIO.c: 171:   {;DIO.c: 172:   case 0: port_ptr = &PORTA ;
  9239                           
  9240  0700  3000               	movlw	0
  9241  0701  00A2               	movwf	Dio_WriteChannel@port_ptr+1
  9242  0702  3005               	movlw	5
  9243  0703  00A1               	movwf	Dio_WriteChannel@port_ptr
  9244                           
  9245                           ;DIO.c: 173:   break ;
  9246  0704  2F3A               	goto	l2699
  9247  0705                     l95:	
  9248                           ;DIO.c: 174:   case 1: port_ptr = &PORTB ;
  9249                           
  9250  0705  3000               	movlw	0
  9251  0706  00A2               	movwf	Dio_WriteChannel@port_ptr+1
  9252  0707  3006               	movlw	6
  9253  0708  00A1               	movwf	Dio_WriteChannel@port_ptr
  9254                           
  9255                           ;DIO.c: 175:   break;
  9256  0709  2F3A               	goto	l2699
  9257  070A                     l96:	
  9258                           ;DIO.c: 176:   case 2: port_ptr = &PORTC;
  9259                           
  9260  070A  3000               	movlw	0
  9261  070B  00A2               	movwf	Dio_WriteChannel@port_ptr+1
  9262  070C  3007               	movlw	7
  9263  070D  00A1               	movwf	Dio_WriteChannel@port_ptr
  9264                           
  9265                           ;DIO.c: 177:   break ;
  9266  070E  2F3A               	goto	l2699
  9267  070F                     l97:	
  9268                           ;DIO.c: 178:   case 3: port_ptr = &PORTD;
  9269                           
  9270  070F  3000               	movlw	0
  9271  0710  00A2               	movwf	Dio_WriteChannel@port_ptr+1
  9272  0711  3008               	movlw	8
  9273  0712  00A1               	movwf	Dio_WriteChannel@port_ptr
  9274                           
  9275                           ;DIO.c: 179:   break ;
  9276  0713  2F3A               	goto	l2699
  9277  0714                     l98:	
  9278                           ;DIO.c: 180:         case 4: port_ptr = &PORTE;
  9279                           
  9280  0714  3000               	movlw	0
  9281  0715  00A2               	movwf	Dio_WriteChannel@port_ptr+1
  9282  0716  3009               	movlw	9
  9283  0717  00A1               	movwf	Dio_WriteChannel@port_ptr
  9284                           
  9285                           ;DIO.c: 181:   break ;
  9286  0718  2F3A               	goto	l2699
  9287  0719                     l2697:
  9288  0719  0823               	movf	Dio_WriteChannel@ChannelId,w
  9289  071A  00F4               	movwf	??_Dio_WriteChannel
  9290  071B  0774               	addwf	??_Dio_WriteChannel,w
  9291  071C  0779               	addwf	_Dio_configuredChannels,w
  9292  071D  00F5               	movwf	??_Dio_WriteChannel+1
  9293  071E  0875               	movf	??_Dio_WriteChannel+1,w
  9294  071F  0084               	movwf	4
  9295  0720  1383               	bcf	3,7	;select IRP bank0
  9296  0721  0800               	movf	0,w
  9297  0722  00F6               	movwf	??_Dio_WriteChannel+2
  9298  0723  01F7               	clrf	??_Dio_WriteChannel+3
  9299                           
  9300                           ; Switch on 2 bytes has been partitioned into a top level switch of size 1, and 1 sub-sw
      +                          itches
  9301                           ; Switch size 1, requested type "simple"
  9302                           ; Number of cases is 1, Range of values is 0 to 0
  9303                           ; switch strategies available:
  9304                           ; Name         Instructions Cycles
  9305                           ; simple_byte            4     3 (average)
  9306                           ; direct_byte           11     8 (fixed)
  9307                           ; jumptable            260     6 (fixed)
  9308                           ;	Chosen strategy is simple_byte
  9309  0724  0877               	movf	??_Dio_WriteChannel+3,w
  9310  0725  3A00               	xorlw	0	; case 0
  9311  0726  1903               	skipnz
  9312  0727  2F29               	goto	l4673
  9313  0728  2F3A               	goto	l2699
  9314  0729                     l4673:
  9315                           
  9316                           ; Switch size 1, requested type "simple"
  9317                           ; Number of cases is 5, Range of values is 0 to 4
  9318                           ; switch strategies available:
  9319                           ; Name         Instructions Cycles
  9320                           ; simple_byte           16     9 (average)
  9321                           ; direct_byte           23     8 (fixed)
  9322                           ; jumptable            260     6 (fixed)
  9323                           ;	Chosen strategy is simple_byte
  9324  0729  0876               	movf	??_Dio_WriteChannel+2,w
  9325  072A  3A00               	xorlw	0	; case 0
  9326  072B  1903               	skipnz
  9327  072C  2F00               	goto	l93
  9328  072D  3A01               	xorlw	1	; case 1
  9329  072E  1903               	skipnz
  9330  072F  2F05               	goto	l95
  9331  0730  3A03               	xorlw	3	; case 2
  9332  0731  1903               	skipnz
  9333  0732  2F0A               	goto	l96
  9334  0733  3A01               	xorlw	1	; case 3
  9335  0734  1903               	skipnz
  9336  0735  2F0F               	goto	l97
  9337  0736  3A07               	xorlw	7	; case 4
  9338  0737  1903               	skipnz
  9339  0738  2F14               	goto	l98
  9340  0739  2F3A               	goto	l2699
  9341  073A                     l2699:
  9342                           
  9343                           ;DIO.c: 183:   if (0x00U == Level)
  9344  073A  0873               	movf	Dio_WriteChannel@Level,w
  9345  073B  1D03               	btfss	3,2
  9346  073C  2F3E               	goto	u2201
  9347  073D  2F3F               	goto	u2200
  9348  073E                     u2201:
  9349  073E  2F5A               	goto	l2703
  9350  073F                     u2200:
  9351  073F                     l2701:
  9352                           
  9353                           ;DIO.c: 184:   {;DIO.c: 185:    (*port_ptr&= (~(1<<Dio_configuredChannels[ChannelId].cha
      +                          nnel_number)));
  9354  073F  3001               	movlw	1
  9355  0740  00F4               	movwf	??_Dio_WriteChannel
  9356  0741  0823               	movf	Dio_WriteChannel@ChannelId,w
  9357  0742  00F5               	movwf	??_Dio_WriteChannel+1
  9358  0743  0775               	addwf	??_Dio_WriteChannel+1,w
  9359  0744  0779               	addwf	_Dio_configuredChannels,w
  9360  0745  00F6               	movwf	??_Dio_WriteChannel+2
  9361  0746  0A76               	incf	??_Dio_WriteChannel+2,w
  9362  0747  0084               	movwf	4
  9363  0748  0A00               	incf	0,w
  9364  0749  2F4C               	goto	u2214
  9365  074A                     u2215:
  9366  074A  1003               	clrc
  9367  074B  0DF4               	rlf	??_Dio_WriteChannel,f
  9368  074C                     u2214:
  9369  074C  3EFF               	addlw	-1
  9370  074D  1D03               	skipz
  9371  074E  2F4A               	goto	u2215
  9372  074F  0874               	movf	??_Dio_WriteChannel,w
  9373  0750  3AFF               	xorlw	255
  9374  0751  00FF               	movwf	btemp+1
  9375  0752  0821               	movf	Dio_WriteChannel@port_ptr,w
  9376  0753  0084               	movwf	4
  9377  0754  1783               	bsf	3,7
  9378  0755  1C22               	btfss	Dio_WriteChannel@port_ptr+1,0
  9379  0756  1383               	bcf	3,7
  9380  0757  087F               	movf	btemp+1,w
  9381  0758  0580               	andwf	0,f
  9382                           
  9383                           ;DIO.c: 186:   }
  9384  0759  2F79               	goto	l104
  9385  075A                     l2703:
  9386  075A  0373               	decf	Dio_WriteChannel@Level,w
  9387  075B  1D03               	btfss	3,2
  9388  075C  2F5E               	goto	u2221
  9389  075D  2F5F               	goto	u2220
  9390  075E                     u2221:
  9391  075E  2F79               	goto	l100
  9392  075F                     u2220:
  9393  075F                     l2705:
  9394                           
  9395                           ;DIO.c: 188:   {;DIO.c: 189:    (*port_ptr|=(1<<Dio_configuredChannels[ChannelId].channe
      +                          l_number));
  9396  075F  3001               	movlw	1
  9397  0760  00F4               	movwf	??_Dio_WriteChannel
  9398  0761  0823               	movf	Dio_WriteChannel@ChannelId,w
  9399  0762  00F5               	movwf	??_Dio_WriteChannel+1
  9400  0763  0775               	addwf	??_Dio_WriteChannel+1,w
  9401  0764  0779               	addwf	_Dio_configuredChannels,w
  9402  0765  00F6               	movwf	??_Dio_WriteChannel+2
  9403  0766  0A76               	incf	??_Dio_WriteChannel+2,w
  9404  0767  0084               	movwf	4
  9405  0768  0A00               	incf	0,w
  9406  0769  2F6C               	goto	u2234
  9407  076A                     u2235:
  9408  076A  1003               	clrc
  9409  076B  0DF4               	rlf	??_Dio_WriteChannel,f
  9410  076C                     u2234:
  9411  076C  3EFF               	addlw	-1
  9412  076D  1D03               	skipz
  9413  076E  2F6A               	goto	u2235
  9414  076F  0874               	movf	??_Dio_WriteChannel,w
  9415  0770  00FF               	movwf	btemp+1
  9416  0771  0821               	movf	Dio_WriteChannel@port_ptr,w
  9417  0772  0084               	movwf	4
  9418  0773  1783               	bsf	3,7
  9419  0774  1C22               	btfss	Dio_WriteChannel@port_ptr+1,0
  9420  0775  1383               	bcf	3,7
  9421  0776  087F               	movf	btemp+1,w
  9422  0777  0480               	iorwf	0,f
  9423                           
  9424                           ;DIO.c: 191:   }
  9425  0778  2F79               	goto	l104
  9426  0779                     l100:
  9427  0779                     l104:	
  9428                           ;DIO.c: 196:  }
  9429                           
  9430  0779  0008               	return
  9431  077A                     __end_of_Dio_WriteChannel:
  9432                           
  9433                           	psect	text56
  9434  089E                     __ptext56:	
  9435 ;; *************** function _Disp_init *****************
  9436 ;; Defined at:
  9437 ;;		line 48 in file "SSD.c"
  9438 ;; Parameters:    Size  Location     Type
  9439 ;;		None
  9440 ;; Auto vars:     Size  Location     Type
  9441 ;;		None
  9442 ;; Return value:  Size  Location     Type
  9443 ;;                  1    wreg      void 
  9444 ;; Registers used:
  9445 ;;		wreg, fsr0l, fsr0h, status,2, status,0, btemp+1, pclath, cstack
  9446 ;; Tracked objects:
  9447 ;;		On entry : 0/0
  9448 ;;		On exit  : 0/0
  9449 ;;		Unchanged: 0/0
  9450 ;; Data sizes:     COMMON   BANK0   BANK1   BANK3   BANK2
  9451 ;;      Params:         0       0       0       0       0
  9452 ;;      Locals:         0       0       0       0       0
  9453 ;;      Temps:          0       0       0       0       0
  9454 ;;      Totals:         0       0       0       0       0
  9455 ;;Total ram usage:        0 bytes
  9456 ;; Hardware stack levels used:    1
  9457 ;; Hardware stack levels required when called:    3
  9458 ;; This function calls:
  9459 ;;		_Port_SetDirection
  9460 ;;		_Port_SetPortDirection
  9461 ;;		_SSD_setConfigurations
  9462 ;; This function is called by:
  9463 ;;		_EWH_initTask
  9464 ;; This function uses a non-reentrant model
  9465 ;;
  9466                           
  9467                           
  9468                           ;psect for function _Disp_init
  9469  089E                     _Disp_init:
  9470  089E                     l4395:	
  9471                           ;incstack = 0
  9472                           ; Regs used in _Disp_init: [wreg-fsr0h+status,2+status,0+btemp+1+pclath+cstack]
  9473                           
  9474                           
  9475                           ;SSD.c: 49:     SSD_setConfigurations();
  9476  089E  120A  158A  2047  120A  158A  	fcall	_SSD_setConfigurations
  9477  08A3                     l4397:
  9478                           
  9479                           ;SSD.c: 50:     Port_SetPortDirection(&g_SSD_DataPortConfig);
  9480  08A3  30E8               	movlw	(low (_g_SSD_DataPortConfig| 0))& (0+255)
  9481  08A4  120A  158A  2538  120A  158A  	fcall	_Port_SetPortDirection
  9482  08A9                     l4399:
  9483                           
  9484                           ;SSD.c: 51:     Port_SetDirection(&g_SSD_DISP1_Enable_config);
  9485  08A9  30DC               	movlw	(low (_g_SSD_DISP1_Enable_config| 0))& (0+255)
  9486  08AA  120A  158A  278C  120A  158A  	fcall	_Port_SetDirection
  9487  08AF                     l4401:
  9488                           
  9489                           ;SSD.c: 52:     Port_SetDirection(&g_SSD_DISP2_Enable_config);
  9490  08AF  30D9               	movlw	(low (_g_SSD_DISP2_Enable_config| 0))& (0+255)
  9491  08B0  120A  158A  278C  120A  158A  	fcall	_Port_SetDirection
  9492  08B5                     l454:
  9493  08B5  0008               	return
  9494  08B6                     __end_of_Disp_init:
  9495                           
  9496                           	psect	text57
  9497  0847                     __ptext57:	
  9498 ;; *************** function _SSD_setConfigurations *****************
  9499 ;; Defined at:
  9500 ;;		line 33 in file "SSD.c"
  9501 ;; Parameters:    Size  Location     Type
  9502 ;;		None
  9503 ;; Auto vars:     Size  Location     Type
  9504 ;;		None
  9505 ;; Return value:  Size  Location     Type
  9506 ;;                  1    wreg      void 
  9507 ;; Registers used:
  9508 ;;		wreg, status,2, btemp+1
  9509 ;; Tracked objects:
  9510 ;;		On entry : 0/0
  9511 ;;		On exit  : 0/0
  9512 ;;		Unchanged: 0/0
  9513 ;; Data sizes:     COMMON   BANK0   BANK1   BANK3   BANK2
  9514 ;;      Params:         0       0       0       0       0
  9515 ;;      Locals:         0       0       0       0       0
  9516 ;;      Temps:          0       0       0       0       0
  9517 ;;      Totals:         0       0       0       0       0
  9518 ;;Total ram usage:        0 bytes
  9519 ;; Hardware stack levels used:    1
  9520 ;; Hardware stack levels required when called:    2
  9521 ;; This function calls:
  9522 ;;		Nothing
  9523 ;; This function is called by:
  9524 ;;		_Disp_init
  9525 ;; This function uses a non-reentrant model
  9526 ;;
  9527                           
  9528                           
  9529                           ;psect for function _SSD_setConfigurations
  9530  0847                     _SSD_setConfigurations:
  9531  0847                     l3433:	
  9532                           ;incstack = 0
  9533                           ; Regs used in _SSD_setConfigurations: [wreg+status,2+btemp+1]
  9534                           
  9535                           
  9536                           ;SSD.c: 34:     g_SSD_DataPortConfig.port = (uint8) 3;
  9537  0847  3003               	movlw	3
  9538  0848  00FF               	movwf	btemp+1
  9539  0849  087F               	movf	btemp+1,w
  9540  084A  1683               	bsf	3,5	;RP0=1, select bank1
  9541  084B  1303               	bcf	3,6	;RP1=0, select bank1
  9542  084C  00E8               	movwf	_g_SSD_DataPortConfig^(0+128)
  9543  084D                     l3435:
  9544                           
  9545                           ;SSD.c: 35:     g_SSD_DataPortConfig.direction = (0U);
  9546  084D  01E9               	clrf	(_g_SSD_DataPortConfig^(0+128)+1)
  9547  084E                     l3437:
  9548                           
  9549                           ;SSD.c: 37:     g_SSD_DISP1_Enable_config.port = (uint8) 0;
  9550  084E  01DC               	clrf	_g_SSD_DISP1_Enable_config^(0+128)
  9551                           
  9552                           ;SSD.c: 38:     g_SSD_DISP1_Enable_config.pin_num = (uint8) 4;
  9553  084F  3004               	movlw	4
  9554  0850  00FF               	movwf	btemp+1
  9555  0851  087F               	movf	btemp+1,w
  9556  0852  00DD               	movwf	(_g_SSD_DISP1_Enable_config^(0+128)+1)
  9557  0853                     l3439:
  9558                           
  9559                           ;SSD.c: 39:     g_SSD_DISP1_Enable_config.direction = (0U);
  9560  0853  01DE               	clrf	(_g_SSD_DISP1_Enable_config^(0+128)+2)
  9561  0854                     l3441:
  9562                           
  9563                           ;SSD.c: 41:     g_SSD_DISP2_Enable_config.port = (uint8)0;
  9564  0854  01D9               	clrf	_g_SSD_DISP2_Enable_config^(0+128)
  9565                           
  9566                           ;SSD.c: 42:     g_SSD_DISP2_Enable_config.pin_num = (uint8)5;
  9567  0855  3005               	movlw	5
  9568  0856  00FF               	movwf	btemp+1
  9569  0857  087F               	movf	btemp+1,w
  9570  0858  00DA               	movwf	(_g_SSD_DISP2_Enable_config^(0+128)+1)
  9571  0859                     l3443:
  9572                           
  9573                           ;SSD.c: 43:     g_SSD_DISP2_Enable_config.direction = (0U);
  9574  0859  01DB               	clrf	(_g_SSD_DISP2_Enable_config^(0+128)+2)
  9575  085A                     l451:
  9576  085A  0008               	return
  9577  085B                     __end_of_SSD_setConfigurations:
  9578                           
  9579                           	psect	text58
  9580  0D38                     __ptext58:	
  9581 ;; *************** function _Port_SetPortDirection *****************
  9582 ;; Defined at:
  9583 ;;		line 36 in file "Port.c"
  9584 ;; Parameters:    Size  Location     Type
  9585 ;;  ConfigPtr       1    wreg     PTR const struct .
  9586 ;;		 -> g_SSD_DataPortConfig(2), 
  9587 ;; Auto vars:     Size  Location     Type
  9588 ;;  ConfigPtr       1    7[COMMON] PTR const struct .
  9589 ;;		 -> g_SSD_DataPortConfig(2), 
  9590 ;;  DDR_Ptr         2    5[COMMON] PTR volatile unsigned ch
  9591 ;;		 -> TRISE(1), TRISD(1), TRISC(1), TRISB(1), 
  9592 ;;		 -> TRISA(1), NULL(0), 
  9593 ;; Return value:  Size  Location     Type
  9594 ;;                  1    wreg      void 
  9595 ;; Registers used:
  9596 ;;		wreg, fsr0l, fsr0h, status,2, status,0, btemp+1
  9597 ;; Tracked objects:
  9598 ;;		On entry : 0/0
  9599 ;;		On exit  : 0/0
  9600 ;;		Unchanged: 0/0
  9601 ;; Data sizes:     COMMON   BANK0   BANK1   BANK3   BANK2
  9602 ;;      Params:         0       0       0       0       0
  9603 ;;      Locals:         3       0       0       0       0
  9604 ;;      Temps:          2       0       0       0       0
  9605 ;;      Totals:         5       0       0       0       0
  9606 ;;Total ram usage:        5 bytes
  9607 ;; Hardware stack levels used:    1
  9608 ;; Hardware stack levels required when called:    2
  9609 ;; This function calls:
  9610 ;;		Nothing
  9611 ;; This function is called by:
  9612 ;;		_Disp_init
  9613 ;; This function uses a non-reentrant model
  9614 ;;
  9615                           
  9616                           
  9617                           ;psect for function _Port_SetPortDirection
  9618  0D38                     _Port_SetPortDirection:
  9619                           
  9620                           ;incstack = 0
  9621                           ; Regs used in _Port_SetPortDirection: [wreg-fsr0h+status,2+status,0+btemp+1]
  9622                           ;Port_SetPortDirection@ConfigPtr stored from wreg
  9623  0D38  00F7               	movwf	Port_SetPortDirection@ConfigPtr
  9624  0D39                     l3325:
  9625                           
  9626                           ;Port.c: 37:  volatile uint8 * DDR_Ptr = ((void *)0);
  9627  0D39  01F5               	clrf	Port_SetPortDirection@DDR_Ptr
  9628  0D3A  01F6               	clrf	Port_SetPortDirection@DDR_Ptr+1
  9629                           
  9630                           ;Port.c: 39:     switch (ConfigPtr->port) {
  9631  0D3B  2D55               	goto	l3329
  9632  0D3C                     l204:	
  9633                           ;Port.c: 40:         case 0: DDR_Ptr = &TRISA;
  9634                           
  9635  0D3C  3000               	movlw	0
  9636  0D3D  00F6               	movwf	Port_SetPortDirection@DDR_Ptr+1
  9637  0D3E  3085               	movlw	133
  9638  0D3F  00F5               	movwf	Port_SetPortDirection@DDR_Ptr
  9639                           
  9640                           ;Port.c: 41:             break;
  9641  0D40  2D71               	goto	l3331
  9642  0D41                     l206:	
  9643                           ;Port.c: 42:         case 1: DDR_Ptr = &TRISB;
  9644                           
  9645  0D41  3000               	movlw	0
  9646  0D42  00F6               	movwf	Port_SetPortDirection@DDR_Ptr+1
  9647  0D43  3086               	movlw	134
  9648  0D44  00F5               	movwf	Port_SetPortDirection@DDR_Ptr
  9649                           
  9650                           ;Port.c: 43:             break;
  9651  0D45  2D71               	goto	l3331
  9652  0D46                     l207:	
  9653                           ;Port.c: 44:         case 2: DDR_Ptr = &TRISC;
  9654                           
  9655  0D46  3000               	movlw	0
  9656  0D47  00F6               	movwf	Port_SetPortDirection@DDR_Ptr+1
  9657  0D48  3087               	movlw	135
  9658  0D49  00F5               	movwf	Port_SetPortDirection@DDR_Ptr
  9659                           
  9660                           ;Port.c: 45:             break;
  9661  0D4A  2D71               	goto	l3331
  9662  0D4B                     l208:	
  9663                           ;Port.c: 46:         case 3: DDR_Ptr = &TRISD;
  9664                           
  9665  0D4B  3000               	movlw	0
  9666  0D4C  00F6               	movwf	Port_SetPortDirection@DDR_Ptr+1
  9667  0D4D  3088               	movlw	136
  9668  0D4E  00F5               	movwf	Port_SetPortDirection@DDR_Ptr
  9669                           
  9670                           ;Port.c: 47:             break;
  9671  0D4F  2D71               	goto	l3331
  9672  0D50                     l209:	
  9673                           ;Port.c: 48:         case 4: DDR_Ptr = &TRISE;
  9674                           
  9675  0D50  3000               	movlw	0
  9676  0D51  00F6               	movwf	Port_SetPortDirection@DDR_Ptr+1
  9677  0D52  3089               	movlw	137
  9678  0D53  00F5               	movwf	Port_SetPortDirection@DDR_Ptr
  9679                           
  9680                           ;Port.c: 49:             break;
  9681  0D54  2D71               	goto	l3331
  9682  0D55                     l3329:
  9683  0D55  0877               	movf	Port_SetPortDirection@ConfigPtr,w
  9684  0D56  0084               	movwf	4
  9685  0D57  1383               	bcf	3,7	;select IRP bank0
  9686  0D58  0800               	movf	0,w
  9687  0D59  00F3               	movwf	??_Port_SetPortDirection
  9688  0D5A  01F4               	clrf	??_Port_SetPortDirection+1
  9689                           
  9690                           ; Switch on 2 bytes has been partitioned into a top level switch of size 1, and 1 sub-sw
      +                          itches
  9691                           ; Switch size 1, requested type "simple"
  9692                           ; Number of cases is 1, Range of values is 0 to 0
  9693                           ; switch strategies available:
  9694                           ; Name         Instructions Cycles
  9695                           ; simple_byte            4     3 (average)
  9696                           ; direct_byte           11     8 (fixed)
  9697                           ; jumptable            260     6 (fixed)
  9698                           ;	Chosen strategy is simple_byte
  9699  0D5B  0874               	movf	??_Port_SetPortDirection+1,w
  9700  0D5C  3A00               	xorlw	0	; case 0
  9701  0D5D  1903               	skipnz
  9702  0D5E  2D60               	goto	l4675
  9703  0D5F  2D71               	goto	l3331
  9704  0D60                     l4675:
  9705                           
  9706                           ; Switch size 1, requested type "simple"
  9707                           ; Number of cases is 5, Range of values is 0 to 4
  9708                           ; switch strategies available:
  9709                           ; Name         Instructions Cycles
  9710                           ; simple_byte           16     9 (average)
  9711                           ; direct_byte           23     8 (fixed)
  9712                           ; jumptable            260     6 (fixed)
  9713                           ;	Chosen strategy is simple_byte
  9714  0D60  0873               	movf	??_Port_SetPortDirection,w
  9715  0D61  3A00               	xorlw	0	; case 0
  9716  0D62  1903               	skipnz
  9717  0D63  2D3C               	goto	l204
  9718  0D64  3A01               	xorlw	1	; case 1
  9719  0D65  1903               	skipnz
  9720  0D66  2D41               	goto	l206
  9721  0D67  3A03               	xorlw	3	; case 2
  9722  0D68  1903               	skipnz
  9723  0D69  2D46               	goto	l207
  9724  0D6A  3A01               	xorlw	1	; case 3
  9725  0D6B  1903               	skipnz
  9726  0D6C  2D4B               	goto	l208
  9727  0D6D  3A07               	xorlw	7	; case 4
  9728  0D6E  1903               	skipnz
  9729  0D6F  2D50               	goto	l209
  9730  0D70  2D71               	goto	l3331
  9731  0D71                     l3331:
  9732                           
  9733                           ;Port.c: 52:     if (ConfigPtr->direction == (1U)) {
  9734  0D71  0A77               	incf	Port_SetPortDirection@ConfigPtr,w
  9735  0D72  0084               	movwf	4
  9736  0D73  0300               	decf	0,w
  9737  0D74  1D03               	btfss	3,2
  9738  0D75  2D77               	goto	u3551
  9739  0D76  2D78               	goto	u3550
  9740  0D77                     u3551:
  9741  0D77  2D82               	goto	l3335
  9742  0D78                     u3550:
  9743  0D78                     l3333:
  9744                           
  9745                           ;Port.c: 53:         *DDR_Ptr = 0xFFU;
  9746  0D78  30FF               	movlw	255
  9747  0D79  00FF               	movwf	btemp+1
  9748  0D7A  0875               	movf	Port_SetPortDirection@DDR_Ptr,w
  9749  0D7B  0084               	movwf	4
  9750  0D7C  1783               	bsf	3,7
  9751  0D7D  1C76               	btfss	Port_SetPortDirection@DDR_Ptr+1,0
  9752  0D7E  1383               	bcf	3,7
  9753  0D7F  087F               	movf	btemp+1,w
  9754  0D80  0080               	movwf	0
  9755                           
  9756                           ;Port.c: 54:     } else if (ConfigPtr->direction == (0U)) {
  9757  0D81  2D8F               	goto	l213
  9758  0D82                     l3335:
  9759  0D82  0A77               	incf	Port_SetPortDirection@ConfigPtr,w
  9760  0D83  0084               	movwf	4
  9761  0D84  0800               	movf	0,w
  9762  0D85  1D03               	btfss	3,2
  9763  0D86  2D88               	goto	u3561
  9764  0D87  2D89               	goto	u3560
  9765  0D88                     u3561:
  9766  0D88  2D8F               	goto	l213
  9767  0D89                     u3560:
  9768  0D89                     l3337:
  9769                           
  9770                           ;Port.c: 55:         *DDR_Ptr = 0x00U;
  9771  0D89  0875               	movf	Port_SetPortDirection@DDR_Ptr,w
  9772  0D8A  0084               	movwf	4
  9773  0D8B  1783               	bsf	3,7
  9774  0D8C  1C76               	btfss	Port_SetPortDirection@DDR_Ptr+1,0
  9775  0D8D  1383               	bcf	3,7
  9776  0D8E  0180               	clrf	0
  9777  0D8F                     l213:
  9778  0D8F  0008               	return
  9779  0D90                     __end_of_Port_SetPortDirection:
  9780                           
  9781                           	psect	text59
  9782  0F8C                     __ptext59:	
  9783 ;; *************** function _Port_SetDirection *****************
  9784 ;; Defined at:
  9785 ;;		line 14 in file "Port.c"
  9786 ;; Parameters:    Size  Location     Type
  9787 ;;  ConfigPtr       1    wreg     PTR const struct .
  9788 ;;		 -> g_LED_Config(3), g_SSD_DISP2_Enable_config(3), g_SSD_DISP1_Enable_config(3), g_coolingElement_config(3), 
  9789 ;;		 -> SW_Configurations.SW_configured_channels(9), SW_Configurations(9), g_lm35_config(3), g_HeatingElement_config(3),
      + 
  9790 ;;		 -> NULL(0), 
  9791 ;; Auto vars:     Size  Location     Type
  9792 ;;  ConfigPtr       1    7[COMMON] PTR const struct .
  9793 ;;		 -> g_LED_Config(3), g_SSD_DISP2_Enable_config(3), g_SSD_DISP1_Enable_config(3), g_coolingElement_config(3), 
  9794 ;;		 -> SW_Configurations.SW_configured_channels(9), SW_Configurations(9), g_lm35_config(3), g_HeatingElement_config(3),
      + 
  9795 ;;		 -> NULL(0), 
  9796 ;;  DDR_Ptr         2    5[COMMON] PTR volatile unsigned ch
  9797 ;;		 -> TRISE(1), TRISD(1), TRISC(1), TRISB(1), 
  9798 ;;		 -> TRISA(1), NULL(0), 
  9799 ;; Return value:  Size  Location     Type
  9800 ;;                  1    wreg      void 
  9801 ;; Registers used:
  9802 ;;		wreg, fsr0l, fsr0h, status,2, status,0, btemp+1
  9803 ;; Tracked objects:
  9804 ;;		On entry : 0/0
  9805 ;;		On exit  : 0/0
  9806 ;;		Unchanged: 0/0
  9807 ;; Data sizes:     COMMON   BANK0   BANK1   BANK3   BANK2
  9808 ;;      Params:         0       0       0       0       0
  9809 ;;      Locals:         3       0       0       0       0
  9810 ;;      Temps:          2       0       0       0       0
  9811 ;;      Totals:         5       0       0       0       0
  9812 ;;Total ram usage:        5 bytes
  9813 ;; Hardware stack levels used:    1
  9814 ;; Hardware stack levels required when called:    2
  9815 ;; This function calls:
  9816 ;;		Nothing
  9817 ;; This function is called by:
  9818 ;;		_Heater_init
  9819 ;;		_LM35_Init
  9820 ;;		_SW_setConfigurations
  9821 ;;		_Fan_init
  9822 ;;		_Disp_init
  9823 ;;		_LED_init
  9824 ;; This function uses a non-reentrant model
  9825 ;;
  9826                           
  9827                           
  9828                           ;psect for function _Port_SetDirection
  9829  0F8C                     _Port_SetDirection:
  9830                           
  9831                           ;incstack = 0
  9832                           ; Regs used in _Port_SetDirection: [wreg-fsr0h+status,2+status,0+btemp+1]
  9833                           ;Port_SetDirection@ConfigPtr stored from wreg
  9834  0F8C  00F7               	movwf	Port_SetDirection@ConfigPtr
  9835  0F8D                     l4163:
  9836                           
  9837                           ;Port.c: 15:    volatile uint8 * DDR_Ptr = ((void *)0);
  9838  0F8D  01F5               	clrf	Port_SetDirection@DDR_Ptr
  9839  0F8E  01F6               	clrf	Port_SetDirection@DDR_Ptr+1
  9840                           
  9841                           ;Port.c: 17:     switch (ConfigPtr->port) {
  9842  0F8F  2FA9               	goto	l4167
  9843  0F90                     l191:	
  9844                           ;Port.c: 18:         case 0: DDR_Ptr = &TRISA;
  9845                           
  9846  0F90  3000               	movlw	0
  9847  0F91  00F6               	movwf	Port_SetDirection@DDR_Ptr+1
  9848  0F92  3085               	movlw	133
  9849  0F93  00F5               	movwf	Port_SetDirection@DDR_Ptr
  9850                           
  9851                           ;Port.c: 19:             break;
  9852  0F94  2FC5               	goto	l4169
  9853  0F95                     l193:	
  9854                           ;Port.c: 20:         case 1: DDR_Ptr = &TRISB;
  9855                           
  9856  0F95  3000               	movlw	0
  9857  0F96  00F6               	movwf	Port_SetDirection@DDR_Ptr+1
  9858  0F97  3086               	movlw	134
  9859  0F98  00F5               	movwf	Port_SetDirection@DDR_Ptr
  9860                           
  9861                           ;Port.c: 21:             break;
  9862  0F99  2FC5               	goto	l4169
  9863  0F9A                     l194:	
  9864                           ;Port.c: 22:         case 2: DDR_Ptr = &TRISC;
  9865                           
  9866  0F9A  3000               	movlw	0
  9867  0F9B  00F6               	movwf	Port_SetDirection@DDR_Ptr+1
  9868  0F9C  3087               	movlw	135
  9869  0F9D  00F5               	movwf	Port_SetDirection@DDR_Ptr
  9870                           
  9871                           ;Port.c: 23:             break;
  9872  0F9E  2FC5               	goto	l4169
  9873  0F9F                     l195:	
  9874                           ;Port.c: 24:         case 3: DDR_Ptr = &TRISD;
  9875                           
  9876  0F9F  3000               	movlw	0
  9877  0FA0  00F6               	movwf	Port_SetDirection@DDR_Ptr+1
  9878  0FA1  3088               	movlw	136
  9879  0FA2  00F5               	movwf	Port_SetDirection@DDR_Ptr
  9880                           
  9881                           ;Port.c: 25:             break;
  9882  0FA3  2FC5               	goto	l4169
  9883  0FA4                     l196:	
  9884                           ;Port.c: 26:         case 4: DDR_Ptr = &TRISE;
  9885                           
  9886  0FA4  3000               	movlw	0
  9887  0FA5  00F6               	movwf	Port_SetDirection@DDR_Ptr+1
  9888  0FA6  3089               	movlw	137
  9889  0FA7  00F5               	movwf	Port_SetDirection@DDR_Ptr
  9890                           
  9891                           ;Port.c: 27:             break;
  9892  0FA8  2FC5               	goto	l4169
  9893  0FA9                     l4167:
  9894  0FA9  0877               	movf	Port_SetDirection@ConfigPtr,w
  9895  0FAA  0084               	movwf	4
  9896  0FAB  1383               	bcf	3,7	;select IRP bank0
  9897  0FAC  0800               	movf	0,w
  9898  0FAD  00F3               	movwf	??_Port_SetDirection
  9899  0FAE  01F4               	clrf	??_Port_SetDirection+1
  9900                           
  9901                           ; Switch on 2 bytes has been partitioned into a top level switch of size 1, and 1 sub-sw
      +                          itches
  9902                           ; Switch size 1, requested type "simple"
  9903                           ; Number of cases is 1, Range of values is 0 to 0
  9904                           ; switch strategies available:
  9905                           ; Name         Instructions Cycles
  9906                           ; simple_byte            4     3 (average)
  9907                           ; direct_byte           11     8 (fixed)
  9908                           ; jumptable            260     6 (fixed)
  9909                           ;	Chosen strategy is simple_byte
  9910  0FAF  0874               	movf	??_Port_SetDirection+1,w
  9911  0FB0  3A00               	xorlw	0	; case 0
  9912  0FB1  1903               	skipnz
  9913  0FB2  2FB4               	goto	l4677
  9914  0FB3  2FC5               	goto	l4169
  9915  0FB4                     l4677:
  9916                           
  9917                           ; Switch size 1, requested type "simple"
  9918                           ; Number of cases is 5, Range of values is 0 to 4
  9919                           ; switch strategies available:
  9920                           ; Name         Instructions Cycles
  9921                           ; simple_byte           16     9 (average)
  9922                           ; direct_byte           23     8 (fixed)
  9923                           ; jumptable            260     6 (fixed)
  9924                           ;	Chosen strategy is simple_byte
  9925  0FB4  0873               	movf	??_Port_SetDirection,w
  9926  0FB5  3A00               	xorlw	0	; case 0
  9927  0FB6  1903               	skipnz
  9928  0FB7  2F90               	goto	l191
  9929  0FB8  3A01               	xorlw	1	; case 1
  9930  0FB9  1903               	skipnz
  9931  0FBA  2F95               	goto	l193
  9932  0FBB  3A03               	xorlw	3	; case 2
  9933  0FBC  1903               	skipnz
  9934  0FBD  2F9A               	goto	l194
  9935  0FBE  3A01               	xorlw	1	; case 3
  9936  0FBF  1903               	skipnz
  9937  0FC0  2F9F               	goto	l195
  9938  0FC1  3A07               	xorlw	7	; case 4
  9939  0FC2  1903               	skipnz
  9940  0FC3  2FA4               	goto	l196
  9941  0FC4  2FC5               	goto	l4169
  9942  0FC5                     l4169:
  9943                           
  9944                           ;Port.c: 29:     if (ConfigPtr->direction == (1U)) {
  9945  0FC5  0877               	movf	Port_SetDirection@ConfigPtr,w
  9946  0FC6  3E02               	addlw	2
  9947  0FC7  0084               	movwf	4
  9948  0FC8  0300               	decf	0,w
  9949  0FC9  1D03               	btfss	3,2
  9950  0FCA  2FCC               	goto	u4431
  9951  0FCB  2FCD               	goto	u4430
  9952  0FCC                     u4431:
  9953  0FCC  2FE2               	goto	l4173
  9954  0FCD                     u4430:
  9955  0FCD                     l4171:
  9956                           
  9957                           ;Port.c: 30:         (*DDR_Ptr|=(1<<ConfigPtr->pin_num));
  9958  0FCD  3001               	movlw	1
  9959  0FCE  00F3               	movwf	??_Port_SetDirection
  9960  0FCF  0A77               	incf	Port_SetDirection@ConfigPtr,w
  9961  0FD0  0084               	movwf	4
  9962  0FD1  0A00               	incf	0,w
  9963  0FD2  2FD5               	goto	u4444
  9964  0FD3                     u4445:
  9965  0FD3  1003               	clrc
  9966  0FD4  0DF3               	rlf	??_Port_SetDirection,f
  9967  0FD5                     u4444:
  9968  0FD5  3EFF               	addlw	-1
  9969  0FD6  1D03               	skipz
  9970  0FD7  2FD3               	goto	u4445
  9971  0FD8  0873               	movf	??_Port_SetDirection,w
  9972  0FD9  00FF               	movwf	btemp+1
  9973  0FDA  0875               	movf	Port_SetDirection@DDR_Ptr,w
  9974  0FDB  0084               	movwf	4
  9975  0FDC  1783               	bsf	3,7
  9976  0FDD  1C76               	btfss	Port_SetDirection@DDR_Ptr+1,0
  9977  0FDE  1383               	bcf	3,7
  9978  0FDF  087F               	movf	btemp+1,w
  9979  0FE0  0480               	iorwf	0,f
  9980                           
  9981                           ;Port.c: 31:     } else if (ConfigPtr->direction == (0U)) {
  9982  0FE1  2FFF               	goto	l200
  9983  0FE2                     l4173:
  9984  0FE2  0877               	movf	Port_SetDirection@ConfigPtr,w
  9985  0FE3  3E02               	addlw	2
  9986  0FE4  0084               	movwf	4
  9987  0FE5  0800               	movf	0,w
  9988  0FE6  1D03               	btfss	3,2
  9989  0FE7  2FE9               	goto	u4451
  9990  0FE8  2FEA               	goto	u4450
  9991  0FE9                     u4451:
  9992  0FE9  2FFF               	goto	l200
  9993  0FEA                     u4450:
  9994  0FEA                     l4175:
  9995                           
  9996                           ;Port.c: 32:         (*DDR_Ptr&= (~(1<<ConfigPtr->pin_num)));
  9997  0FEA  3001               	movlw	1
  9998  0FEB  00F3               	movwf	??_Port_SetDirection
  9999  0FEC  0A77               	incf	Port_SetDirection@ConfigPtr,w
 10000  0FED  0084               	movwf	4
 10001  0FEE  0A00               	incf	0,w
 10002  0FEF  2FF2               	goto	u4464
 10003  0FF0                     u4465:
 10004  0FF0  1003               	clrc
 10005  0FF1  0DF3               	rlf	??_Port_SetDirection,f
 10006  0FF2                     u4464:
 10007  0FF2  3EFF               	addlw	-1
 10008  0FF3  1D03               	skipz
 10009  0FF4  2FF0               	goto	u4465
 10010  0FF5  0873               	movf	??_Port_SetDirection,w
 10011  0FF6  3AFF               	xorlw	255
 10012  0FF7  00FF               	movwf	btemp+1
 10013  0FF8  0875               	movf	Port_SetDirection@DDR_Ptr,w
 10014  0FF9  0084               	movwf	4
 10015  0FFA  1783               	bsf	3,7
 10016  0FFB  1C76               	btfss	Port_SetDirection@DDR_Ptr+1,0
 10017  0FFC  1383               	bcf	3,7
 10018  0FFD  087F               	movf	btemp+1,w
 10019  0FFE  0580               	andwf	0,f
 10020  0FFF                     l200:
 10021  0FFF  0008               	return
 10022  1000                     __end_of_Port_SetDirection:
 10023                           
 10024                           	psect	text60
 10025  0906                     __ptext60:	
 10026 ;; *************** function _Dio_Init *****************
 10027 ;; Defined at:
 10028 ;;		line 14 in file "DIO.c"
 10029 ;; Parameters:    Size  Location     Type
 10030 ;;  ConfigPtr       1    wreg     PTR const struct .
 10031 ;;		 -> DIO_configuration(17), 
 10032 ;; Auto vars:     Size  Location     Type
 10033 ;;  ConfigPtr       1    4[COMMON] PTR const struct .
 10034 ;;		 -> DIO_configuration(17), 
 10035 ;;  error           1    3[COMMON] unsigned char 
 10036 ;; Return value:  Size  Location     Type
 10037 ;;                  1    wreg      void 
 10038 ;; Registers used:
 10039 ;;		wreg, status,2, status,0, btemp+1
 10040 ;; Tracked objects:
 10041 ;;		On entry : 0/0
 10042 ;;		On exit  : 0/0
 10043 ;;		Unchanged: 0/0
 10044 ;; Data sizes:     COMMON   BANK0   BANK1   BANK3   BANK2
 10045 ;;      Params:         0       0       0       0       0
 10046 ;;      Locals:         2       0       0       0       0
 10047 ;;      Temps:          0       0       0       0       0
 10048 ;;      Totals:         2       0       0       0       0
 10049 ;;Total ram usage:        2 bytes
 10050 ;; Hardware stack levels used:    1
 10051 ;; Hardware stack levels required when called:    2
 10052 ;; This function calls:
 10053 ;;		Nothing
 10054 ;; This function is called by:
 10055 ;;		_EWH_initTask
 10056 ;; This function uses a non-reentrant model
 10057 ;;
 10058                           
 10059                           
 10060                           ;psect for function _Dio_Init
 10061  0906                     _Dio_Init:
 10062                           
 10063                           ;incstack = 0
 10064                           ; Regs used in _Dio_Init: [wreg+status,2+status,0+btemp+1]
 10065                           ;Dio_Init@ConfigPtr stored from wreg
 10066  0906  00F4               	movwf	Dio_Init@ConfigPtr
 10067  0907                     l3499:
 10068                           
 10069                           ;DIO.c: 15:  boolean error = 0x00U ;
 10070  0907  01F3               	clrf	Dio_Init@error
 10071  0908                     l3501:
 10072                           
 10073                           ;DIO.c: 17:  if (((void *)0) == ConfigPtr)
 10074  0908  0874               	movf	Dio_Init@ConfigPtr,w
 10075  0909  1D03               	btfss	3,2
 10076  090A  290C               	goto	u3791
 10077  090B  290D               	goto	u3790
 10078  090C                     u3791:
 10079  090C  290F               	goto	l3505
 10080  090D                     u3790:
 10081  090D                     l3503:
 10082                           
 10083                           ;DIO.c: 18:  {;DIO.c: 20:   error = 0x01U ;
 10084  090D  01F3               	clrf	Dio_Init@error
 10085  090E  0AF3               	incf	Dio_Init@error,f
 10086  090F                     l3505:	
 10087                           ;DIO.c: 21:  }
 10088                           
 10089                           
 10090                           ;DIO.c: 27:  if (0x00U == error)
 10091  090F  0873               	movf	Dio_Init@error,w
 10092  0910  1D03               	btfss	3,2
 10093  0911  2913               	goto	u3801
 10094  0912  2914               	goto	u3800
 10095  0913                     u3801:
 10096  0913  2921               	goto	l52
 10097  0914                     u3800:
 10098  0914                     l3507:
 10099                           
 10100                           ;DIO.c: 28:  {;DIO.c: 29:   Dio_configuredChannels = ConfigPtr->Dio_channels ;
 10101  0914  0874               	movf	Dio_Init@ConfigPtr,w
 10102  0915  00FF               	movwf	btemp+1
 10103  0916  087F               	movf	btemp+1,w
 10104  0917  00F9               	movwf	_Dio_configuredChannels
 10105  0918                     l3509:
 10106                           
 10107                           ;DIO.c: 30:   Dio_configuredPorts = ConfigPtr->Dio_ports ;
 10108  0918  0874               	movf	Dio_Init@ConfigPtr,w
 10109  0919  3E10               	addlw	16
 10110  091A  00FF               	movwf	btemp+1
 10111  091B  087F               	movf	btemp+1,w
 10112  091C  1283               	bcf	3,5	;RP0=0, select bank0
 10113  091D  1303               	bcf	3,6	;RP1=0, select bank0
 10114  091E  00EE               	movwf	_Dio_configuredPorts
 10115  091F                     l3511:
 10116                           
 10117                           ;DIO.c: 31:   Dio_status = (1U) ;
 10118  091F  01EF               	clrf	_Dio_status
 10119  0920  0AEF               	incf	_Dio_status,f
 10120  0921                     l52:	
 10121                           ;DIO.c: 32:  }
 10122                           
 10123  0921  0008               	return
 10124  0922                     __end_of_Dio_Init:
 10125                           
 10126                           	psect	text61
 10127  0CE6                     __ptext61:	
 10128 ;; *************** function _Adc_init *****************
 10129 ;; Defined at:
 10130 ;;		line 23 in file "ADC.c"
 10131 ;; Parameters:    Size  Location     Type
 10132 ;;  Config_Ptr      1    wreg     PTR const struct .
 10133 ;;		 -> Adc_configuration(2), 
 10134 ;; Auto vars:     Size  Location     Type
 10135 ;;  Config_Ptr      1    5[COMMON] PTR const struct .
 10136 ;;		 -> Adc_configuration(2), 
 10137 ;; Return value:  Size  Location     Type
 10138 ;;                  1    wreg      void 
 10139 ;; Registers used:
 10140 ;;		wreg, fsr0l, fsr0h, status,2, status,0, btemp+1, pclath
 10141 ;; Tracked objects:
 10142 ;;		On entry : 0/0
 10143 ;;		On exit  : 0/0
 10144 ;;		Unchanged: 0/0
 10145 ;; Data sizes:     COMMON   BANK0   BANK1   BANK3   BANK2
 10146 ;;      Params:         0       0       0       0       0
 10147 ;;      Locals:         1       0       0       0       0
 10148 ;;      Temps:          2       0       0       0       0
 10149 ;;      Totals:         3       0       0       0       0
 10150 ;;Total ram usage:        3 bytes
 10151 ;; Hardware stack levels used:    1
 10152 ;; Hardware stack levels required when called:    2
 10153 ;; This function calls:
 10154 ;;		Nothing
 10155 ;; This function is called by:
 10156 ;;		_EWH_initTask
 10157 ;; This function uses a non-reentrant model
 10158 ;;
 10159                           
 10160                           
 10161                           ;psect for function _Adc_init
 10162  0CE6                     _Adc_init:
 10163                           
 10164                           ;incstack = 0
 10165                           ; Regs used in _Adc_init: [wreg-fsr0h+status,2+status,0+btemp+1+pclath]
 10166                           ;Adc_init@Config_Ptr stored from wreg
 10167  0CE6  00F5               	movwf	Adc_init@Config_Ptr
 10168  0CE7                     l3485:
 10169                           
 10170                           ;ADC.c: 24:  if (((void *)0) != Config_Ptr) {
 10171  0CE7  0875               	movf	Adc_init@Config_Ptr,w
 10172  0CE8  1903               	btfsc	3,2
 10173  0CE9  2CEB               	goto	u3761
 10174  0CEA  2CEC               	goto	u3760
 10175  0CEB                     u3761:
 10176  0CEB  2D37               	goto	l20
 10177  0CEC                     u3760:
 10178  0CEC                     l3487:
 10179                           
 10180                           ;ADC.c: 27:         ADCON0 = (ADCON0 & 0xCF) | ((Config_Ptr->prescale & 0x03)<<6);
 10181  0CEC  0875               	movf	Adc_init@Config_Ptr,w
 10182  0CED  0084               	movwf	4
 10183  0CEE  160A  118A  2000  120A  158A  	fcall	stringdir
 10184  0CF3  3903               	andlw	3
 10185  0CF4  00F3               	movwf	??_Adc_init
 10186  0CF5  3006               	movlw	6
 10187  0CF6                     u3775:
 10188  0CF6  1003               	clrc
 10189  0CF7  0DF3               	rlf	??_Adc_init,f
 10190  0CF8  3EFF               	addlw	-1
 10191  0CF9  1D03               	skipz
 10192  0CFA  2CF6               	goto	u3775
 10193  0CFB  1283               	bcf	3,5	;RP0=0, select bank0
 10194  0CFC  1303               	bcf	3,6	;RP1=0, select bank0
 10195  0CFD  081F               	movf	31,w	;volatile
 10196  0CFE  39CF               	andlw	207
 10197  0CFF  0473               	iorwf	??_Adc_init,w
 10198  0D00  009F               	movwf	31	;volatile
 10199                           
 10200                           ;ADC.c: 28:         ADCON1 = (ADCON1 & 0xBF) | ((Config_Ptr->prescale & 0x04)<<4);
 10201  0D01  0875               	movf	Adc_init@Config_Ptr,w
 10202  0D02  0084               	movwf	4
 10203  0D03  160A  118A  2000  120A  158A  	fcall	stringdir
 10204  0D08  3904               	andlw	4
 10205  0D09  00F3               	movwf	??_Adc_init
 10206  0D0A  3004               	movlw	4
 10207  0D0B                     u3785:
 10208  0D0B  1003               	clrc
 10209  0D0C  0DF3               	rlf	??_Adc_init,f
 10210  0D0D  3EFF               	addlw	-1
 10211  0D0E  1D03               	skipz
 10212  0D0F  2D0B               	goto	u3785
 10213  0D10  1683               	bsf	3,5	;RP0=1, select bank1
 10214  0D11  1303               	bcf	3,6	;RP1=0, select bank1
 10215  0D12  081F               	movf	31,w	;volatile
 10216  0D13  39BF               	andlw	191
 10217  0D14  0473               	iorwf	??_Adc_init,w
 10218  0D15  009F               	movwf	31	;volatile
 10219                           
 10220                           ;ADC.c: 30:         switch (Config_Ptr->aligment)
 10221  0D16  2D1E               	goto	l3493
 10222  0D17                     l3489:
 10223  0D17  307F               	movlw	127
 10224  0D18  00FF               	movwf	btemp+1
 10225  0D19  087F               	movf	btemp+1,w
 10226  0D1A  059F               	andwf	31,f	;volatile
 10227                           
 10228                           ;ADC.c: 33:   break;
 10229  0D1B  2D35               	goto	l18
 10230  0D1C                     l19:	
 10231                           ;ADC.c: 34:   case ADC_ALIGN_RIGHT:(ADCON1|=(1<<7));
 10232                           
 10233  0D1C  179F               	bsf	31,7	;volatile
 10234                           
 10235                           ;ADC.c: 35:   break;
 10236  0D1D  2D35               	goto	l18
 10237  0D1E                     l3493:
 10238  0D1E  0875               	movf	Adc_init@Config_Ptr,w
 10239  0D1F  3E01               	addlw	1
 10240  0D20  0084               	movwf	4
 10241  0D21  160A  118A  2000  120A  158A  	fcall	stringdir
 10242  0D26  00F3               	movwf	??_Adc_init
 10243  0D27  01F4               	clrf	??_Adc_init+1
 10244                           
 10245                           ; Switch on 2 bytes has been partitioned into a top level switch of size 1, and 1 sub-sw
      +                          itches
 10246                           ; Switch size 1, requested type "simple"
 10247                           ; Number of cases is 1, Range of values is 0 to 0
 10248                           ; switch strategies available:
 10249                           ; Name         Instructions Cycles
 10250                           ; simple_byte            4     3 (average)
 10251                           ; direct_byte           11     8 (fixed)
 10252                           ; jumptable            260     6 (fixed)
 10253                           ;	Chosen strategy is simple_byte
 10254  0D28  0874               	movf	??_Adc_init+1,w
 10255  0D29  3A00               	xorlw	0	; case 0
 10256  0D2A  1903               	skipnz
 10257  0D2B  2D2D               	goto	l4679
 10258  0D2C  2D35               	goto	l18
 10259  0D2D                     l4679:
 10260                           
 10261                           ; Switch size 1, requested type "simple"
 10262                           ; Number of cases is 2, Range of values is 0 to 1
 10263                           ; switch strategies available:
 10264                           ; Name         Instructions Cycles
 10265                           ; simple_byte            7     4 (average)
 10266                           ; direct_byte           14     8 (fixed)
 10267                           ; jumptable            260     6 (fixed)
 10268                           ;	Chosen strategy is simple_byte
 10269  0D2D  0873               	movf	??_Adc_init,w
 10270  0D2E  3A00               	xorlw	0	; case 0
 10271  0D2F  1903               	skipnz
 10272  0D30  2D17               	goto	l3489
 10273  0D31  3A01               	xorlw	1	; case 1
 10274  0D32  1903               	skipnz
 10275  0D33  2D1C               	goto	l19
 10276  0D34  2D35               	goto	l18
 10277  0D35                     l18:
 10278                           
 10279                           ;ADC.c: 38:   Adc_Status = (1U);
 10280  0D35  01FA               	clrf	_Adc_Status
 10281  0D36  0AFA               	incf	_Adc_Status,f
 10282  0D37                     l20:
 10283  0D37  0008               	return
 10284  0D38                     __end_of_Adc_init:
 10285                           
 10286                           	psect	text62
 10287  0940                     __ptext62:	
 10288 ;; *************** function _Main_ISR *****************
 10289 ;; Defined at:
 10290 ;;		line 8 in file "INTHandelrs.c"
 10291 ;; Parameters:    Size  Location     Type
 10292 ;;		None
 10293 ;; Auto vars:     Size  Location     Type
 10294 ;;		None
 10295 ;; Return value:  Size  Location     Type
 10296 ;;                  1    wreg      void 
 10297 ;; Registers used:
 10298 ;;		wreg, status,2, status,0, btemp+1, pclath, cstack
 10299 ;; Tracked objects:
 10300 ;;		On entry : 0/0
 10301 ;;		On exit  : 0/0
 10302 ;;		Unchanged: 0/0
 10303 ;; Data sizes:     COMMON   BANK0   BANK1   BANK3   BANK2
 10304 ;;      Params:         0       0       0       0       0
 10305 ;;      Locals:         0       0       0       0       0
 10306 ;;      Temps:          3       0       0       0       0
 10307 ;;      Totals:         3       0       0       0       0
 10308 ;;Total ram usage:        3 bytes
 10309 ;; Hardware stack levels used:    1
 10310 ;; Hardware stack levels required when called:    1
 10311 ;; This function calls:
 10312 ;;		Absolute function
 10313 ;;		_Os_newTimerTick
 10314 ;; This function is called by:
 10315 ;;		Interrupt level 1
 10316 ;; This function uses a non-reentrant model
 10317 ;;
 10318                           
 10319                           
 10320                           ;psect for function _Main_ISR
 10321  0940                     _Main_ISR:
 10322  0940                     i1l3791:
 10323                           
 10324                           ;INTHandelrs.c: 11:     if (TMR1IF == 1) {
 10325  0940  1C0C               	btfss	12,0	;volatile
 10326  0941  2943               	goto	u413_21
 10327  0942  2944               	goto	u413_20
 10328  0943                     u413_21:
 10329  0943  2954               	goto	i1l3799
 10330  0944                     u413_20:
 10331  0944                     i1l3793:
 10332                           
 10333                           ;INTHandelrs.c: 12:         if (((void *)0) != g_TMR1_callback_ptr) {
 10334  0944  1683               	bsf	3,5	;RP0=1, select bank1
 10335  0945  1303               	bcf	3,6	;RP1=0, select bank1
 10336  0946  086A               	movf	_g_TMR1_callback_ptr^(0+128),w
 10337  0947  1903               	btfsc	3,2
 10338  0948  294A               	goto	u414_21
 10339  0949  294B               	goto	u414_20
 10340  094A                     u414_21:
 10341  094A  2951               	goto	i1l3797
 10342  094B                     u414_20:
 10343  094B                     i1l3795:
 10344                           
 10345                           ;INTHandelrs.c: 13:             (*g_TMR1_callback_ptr)();
 10346  094B  086A               	movf	_g_TMR1_callback_ptr^(0+128),w
 10347  094C  120A  118A  2038  120A  158A  	fcall	i1fptable
 10348  0951                     i1l3797:
 10349                           
 10350                           ;INTHandelrs.c: 15:         TMR1IF = 0;
 10351  0951  1283               	bcf	3,5	;RP0=0, select bank0
 10352  0952  1303               	bcf	3,6	;RP1=0, select bank0
 10353  0953  100C               	bcf	12,0	;volatile
 10354  0954                     i1l3799:
 10355                           
 10356                           ;INTHandelrs.c: 19:     if (INTF == 1) {
 10357  0954  1C8B               	btfss	11,1	;volatile
 10358  0955  2957               	goto	u415_21
 10359  0956  2958               	goto	u415_20
 10360  0957                     u415_21:
 10361  0957  2959               	goto	i1l310
 10362  0958                     u415_20:
 10363  0958                     i1l309:	
 10364                           ;INTHandelrs.c: 22:         }
 10365                           
 10366                           
 10367                           ;INTHandelrs.c: 23:         INTF =0;
 10368  0958  108B               	bcf	11,1	;volatile
 10369  0959                     i1l310:
 10370  0959  0872               	movf	??_Main_ISR+2,w
 10371  095A  00FF               	movwf	btemp+1
 10372  095B  0871               	movf	??_Main_ISR+1,w
 10373  095C  008A               	movwf	10
 10374  095D  0E70               	swapf	??_Main_ISR^(0+4294967168),w
 10375  095E  0083               	movwf	3
 10376  095F  0EFE               	swapf	btemp,f
 10377  0960  0E7E               	swapf	btemp,w
 10378  0961  0009               	retfie
 10379  0962                     __end_of_Main_ISR:
 10380                           
 10381                           	psect	intentry
 10382  0004                     __pintentry:	
 10383                           ;incstack = 0
 10384 ;; hardware stack exceeded
 10385                           ; Regs used in _Main_ISR: [wreg+status,2+status,0+btemp+1+pclath+cstack]
 10386                           
 10387  0004                     interrupt_function:
 10388  007E                     saved_w	set	btemp
 10389  0004  00FE               	movwf	btemp
 10390  0005  0E03               	swapf	3,w
 10391  0006  00F0               	movwf	??_Main_ISR
 10392  0007  080A               	movf	10,w
 10393  0008  00F1               	movwf	??_Main_ISR+1
 10394  0009  1283               	bcf	3,5	;RP0=0, select bank0
 10395  000A  1303               	bcf	3,6	;RP1=0, select bank0
 10396  000B  087F               	movf	btemp+1,w
 10397  000C  00F2               	movwf	??_Main_ISR+2
 10398  000D  120A  158A  2940   	ljmp	_Main_ISR
 10399                           
 10400                           	psect	text63
 10401  0B43                     __ptext63:	
 10402 ;; *************** function _Os_newTimerTick *****************
 10403 ;; Defined at:
 10404 ;;		line 38 in file "Os.c"
 10405 ;; Parameters:    Size  Location     Type
 10406 ;;		None
 10407 ;; Auto vars:     Size  Location     Type
 10408 ;;		None
 10409 ;; Return value:  Size  Location     Type
 10410 ;;                  1    wreg      void 
 10411 ;; Registers used:
 10412 ;;		wreg, status,2, status,0, btemp+1
 10413 ;; Tracked objects:
 10414 ;;		On entry : 0/0
 10415 ;;		On exit  : 0/0
 10416 ;;		Unchanged: 0/0
 10417 ;; Data sizes:     COMMON   BANK0   BANK1   BANK3   BANK2
 10418 ;;      Params:         0       0       0       0       0
 10419 ;;      Locals:         0       0       0       0       0
 10420 ;;      Temps:          0       0       0       0       0
 10421 ;;      Totals:         0       0       0       0       0
 10422 ;;Total ram usage:        0 bytes
 10423 ;; Hardware stack levels used:    1
 10424 ;; This function calls:
 10425 ;;		Nothing
 10426 ;; This function is called by:
 10427 ;;		_Os_start
 10428 ;;		_Main_ISR
 10429 ;; This function uses a non-reentrant model
 10430 ;;
 10431                           
 10432                           
 10433                           ;psect for function _Os_newTimerTick
 10434  0B43                     _Os_newTimerTick:
 10435  0B43                     i1l3731:	
 10436                           ;incstack = 0
 10437 ;; hardware stack exceeded
 10438                           ; Regs used in _Os_newTimerTick: [wreg+status,2+status,0+btemp+1]
 10439                           
 10440                           
 10441                           ;Os.c: 39:     EWH_SysTimes.tempsensingTime++;
 10442  0B43  3001               	movlw	1
 10443  0B44  00FF               	movwf	btemp+1
 10444  0B45  087F               	movf	btemp+1,w
 10445  0B46  1683               	bsf	3,5	;RP0=1, select bank1
 10446  0B47  1303               	bcf	3,6	;RP1=0, select bank1
 10447  0B48  07D2               	addwf	_EWH_SysTimes^(0+128),f
 10448  0B49                     i1l3733:
 10449                           
 10450                           ;Os.c: 40:     EWH_SysTimes.lastpressedswTime++;
 10451  0B49  3001               	movlw	1
 10452  0B4A  07D3               	addwf	(_EWH_SysTimes^(0+128)+1),f
 10453  0B4B  1803               	skipnc
 10454  0B4C  0AD4               	incf	((_EWH_SysTimes+1)^(0+128)+1),f
 10455  0B4D  3000               	movlw	0
 10456  0B4E  07D4               	addwf	((_EWH_SysTimes+1)^(0+128)+1),f
 10457  0B4F                     i1l3735:
 10458                           
 10459                           ;Os.c: 41:     sw++;
 10460  0B4F  3001               	movlw	1
 10461  0B50  00FF               	movwf	btemp+1
 10462  0B51  087F               	movf	btemp+1,w
 10463  0B52  1283               	bcf	3,5	;RP0=0, select bank0
 10464  0B53  1303               	bcf	3,6	;RP1=0, select bank0
 10465  0B54  07EB               	addwf	_sw,f
 10466  0B55                     i1l3737:
 10467                           
 10468                           ;Os.c: 42:     if (100 == EWH_SysTimes.tempsensingTime)
 10469  0B55  3064               	movlw	100
 10470  0B56  1683               	bsf	3,5	;RP0=1, select bank1
 10471  0B57  1303               	bcf	3,6	;RP1=0, select bank1
 10472  0B58  0652               	xorwf	_EWH_SysTimes^(0+128),w
 10473  0B59  1D03               	btfss	3,2
 10474  0B5A  2B5C               	goto	u406_21
 10475  0B5B  2B5D               	goto	u406_20
 10476  0B5C                     u406_21:
 10477  0B5C  2B5F               	goto	i1l3743
 10478  0B5D                     u406_20:
 10479  0B5D                     i1l3739:
 10480                           
 10481                           ;Os.c: 43:     {;Os.c: 44:         EWH_SysFlags.temp_sensing_time_flag = 1;
 10482  0B5D  14F8               	bsf	_EWH_SysFlags,1
 10483  0B5E                     i1l3741:
 10484                           
 10485                           ;Os.c: 45:         EWH_SysTimes.tempsensingTime = 0;
 10486  0B5E  01D2               	clrf	_EWH_SysTimes^(0+128)
 10487  0B5F                     i1l3743:
 10488                           
 10489                           ;Os.c: 48:     if (EWH_SysFlags.SW_pressed_flag == 1)
 10490  0B5F  1C78               	btfss	_EWH_SysFlags,0
 10491  0B60  2B62               	goto	u407_21
 10492  0B61  2B63               	goto	u407_20
 10493  0B62                     u407_21:
 10494  0B62  2B65               	goto	i1l3747
 10495  0B63                     u407_20:
 10496  0B63                     i1l3745:
 10497                           
 10498                           ;Os.c: 49:     {;Os.c: 50:         EWH_SysTimes.lastpressedswTime = 0;
 10499  0B63  01D3               	clrf	(_EWH_SysTimes^(0+128)+1)
 10500  0B64  01D4               	clrf	((_EWH_SysTimes+1)^(0+128)+1)
 10501  0B65                     i1l3747:
 10502                           
 10503                           ;Os.c: 52:    if (5000 == EWH_SysTimes.lastpressedswTime)
 10504  0B65  3088               	movlw	136
 10505  0B66  0653               	xorwf	(_EWH_SysTimes^(0+128)+1),w
 10506  0B67  3013               	movlw	19
 10507  0B68  1903               	skipnz
 10508  0B69  0654               	xorwf	((_EWH_SysTimes+1)^(0+128)+1),w
 10509  0B6A  1D03               	btfss	3,2
 10510  0B6B  2B6D               	goto	u408_21
 10511  0B6C  2B6E               	goto	u408_20
 10512  0B6D                     u408_21:
 10513  0B6D  2B71               	goto	i1l3753
 10514  0B6E                     u408_20:
 10515  0B6E                     i1l3749:
 10516                           
 10517                           ;Os.c: 53:     {;Os.c: 54:         EWH_SysFlags.pressed_Sw_timeout = 1;
 10518  0B6E  1678               	bsf	_EWH_SysFlags,4
 10519  0B6F                     i1l3751:
 10520                           
 10521                           ;Os.c: 55:         EWH_SysTimes.lastpressedswTime = 0;
 10522  0B6F  01D3               	clrf	(_EWH_SysTimes^(0+128)+1)
 10523  0B70  01D4               	clrf	((_EWH_SysTimes+1)^(0+128)+1)
 10524  0B71                     i1l3753:
 10525                           
 10526                           ;Os.c: 58:     EWH_SysFlags.SW_time_flag = 1;
 10527  0B71  16F8               	bsf	_EWH_SysFlags,5
 10528  0B72                     i1l3755:
 10529                           
 10530                           ;Os.c: 59:     if(sw)
 10531  0B72  1283               	bcf	3,5	;RP0=0, select bank0
 10532  0B73  1303               	bcf	3,6	;RP1=0, select bank0
 10533  0B74  086B               	movf	_sw,w
 10534  0B75  1903               	btfsc	3,2
 10535  0B76  2B78               	goto	u409_21
 10536  0B77  2B79               	goto	u409_20
 10537  0B78                     u409_21:
 10538  0B78  2B7B               	goto	i1l3761
 10539  0B79                     u409_20:
 10540  0B79                     i1l3757:
 10541                           
 10542                           ;Os.c: 60:     {;Os.c: 61:     EWH_SysFlags.display_time_flag = 1;
 10543  0B79  1578               	bsf	_EWH_SysFlags,2
 10544  0B7A                     i1l3759:
 10545                           
 10546                           ;Os.c: 62:     sw = 0 ;
 10547  0B7A  01EB               	clrf	_sw
 10548  0B7B                     i1l3761:
 10549                           
 10550                           ;Os.c: 64:     TMR1L = 0x05;
 10551  0B7B  3005               	movlw	5
 10552  0B7C  008E               	movwf	14	;volatile
 10553  0B7D                     i1l3763:
 10554                           
 10555                           ;Os.c: 65:     TMR1H = 0xf5;
 10556  0B7D  30F5               	movlw	245
 10557  0B7E  008F               	movwf	15	;volatile
 10558  0B7F                     i1l643:
 10559  0B7F  0008               	return
 10560  0B80                     __end_of_Os_newTimerTick:
 10561  0002                     
 10562                           	psect	functab
 10563  0037                     __pfunctab:
 10564  0037                     fptable:
 10565  0037  2837               	goto	fptable	;no entries
 10566  0038                     __i1fptable:
 10567  0038                     i1fptable:
 10568  0038  00FF               	movwf	(btemp+1)& (0+127)
 10569  0039  3000               	movlw	high i1fptable
 10570  003A  008A               	movwf	10
 10571  003B  087F               	movf	(btemp+1)& (0+127),w
 10572  003C  0782               	addwf	2,f
 10573  003D                     i1fpbase:
 10574  003D  283D               	goto	i1fpbase	; Call via a null pointer and you will get stuck here.
 10575  003E                     fp__Os_newTimerTick:
 10576  003E  120A  158A  2B43   	ljmp	_Os_newTimerTick
 10577  0041                     __end_of__i1fptable:
 10578  007E                     btemp	set	126	;btemp
 10579  007E                     wtemp0	set	126
 10580                           
 10581                           	psect	config
 10582                           
 10583                           ;Config register CONFIG @ 0x2007
 10584                           ;	Oscillator Selection bits
 10585                           ;	FOSC = HS, HS oscillator
 10586                           ;	Watchdog Timer Enable bit
 10587                           ;	WDTE = OFF, WDT disabled
 10588                           ;	Power-up Timer Enable bit
 10589                           ;	PWRTE = OFF, PWRT disabled
 10590                           ;	Brown-out Reset Enable bit
 10591                           ;	BOREN = 0x1, unprogrammed default
 10592                           ;	Low-Voltage (Single-Supply) In-Circuit Serial Programming Enable bit
 10593                           ;	LVP = OFF, RB3 is digital I/O, HV on MCLR must be used for programming
 10594                           ;	Data EEPROM Memory Code Protection bit
 10595                           ;	CPD = OFF, Data EEPROM code protection off
 10596                           ;	Flash Program Memory Write Enable bits
 10597                           ;	WRT = OFF, Write protection off; all program memory may be written to by EECON control
 10598                           ;	In-Circuit Debugger Mode bit
 10599                           ;	DEBUG = 0x1, unprogrammed default
 10600                           ;	Flash Program Memory Code Protection bit
 10601                           ;	CP = OFF, Code protection off
 10602  2007                     	org	8199
 10603  2007  3F7A               	dw	16250

Data Sizes:
    Strings     0
    Constant    2
    Data        39
    BSS         45
    Persistent  1
    Stack       0

Auto Spaces:
    Space          Size  Autos    Used
    COMMON           14      8      11
    BANK0            80     73      80
    BANK1            80      0      75
    BANK3            96      0       0
    BANK2            96      0       0

Pointer List with Targets:

    Tmr1_setCallback@a_ptr	PTR FTN()void  size(1) Largest target is 1
		 -> Os_newTimerTick(), 

    g_ExtINT_callback_ptr	PTR FTN()void  size(1) Largest target is 1
		 -> Absolute function(), 

    g_TMR1_callback_ptr	PTR FTN()void  size(1) Largest target is 1
		 -> Os_newTimerTick(), Absolute function(), 

    g_SW_configs	PTR struct . size(1) Largest target is 9
		 -> SW_Configurations.SW_configured_channels(BANK1[9]), SW_Configurations(BANK1[9]), NULL(NULL[0]), 

    SW_setConfigurations@config_PTR	PTR struct . size(1) Largest target is 9
		 -> SW_Configurations(BANK1[9]), 

    Port_SetPortDirection@ConfigPtr	PTR const struct . size(1) Largest target is 2
		 -> g_SSD_DataPortConfig(BANK1[2]), 

    Port_SetPortDirection@DDR_Ptr	PTR volatile unsigned char  size(2) Largest target is 1
		 -> TRISE(SFR1[1]), TRISD(SFR1[1]), TRISC(SFR1[1]), TRISB(SFR1[1]), 
		 -> TRISA(SFR1[1]), NULL(NULL[0]), 

    Port_SetDirection@ConfigPtr	PTR const struct . size(1) Largest target is 9
		 -> g_LED_Config(BANK1[3]), g_SSD_DISP2_Enable_config(BANK1[3]), g_SSD_DISP1_Enable_config(BANK1[3]), g_coolingElement_config(BANK1[3]), 
		 -> SW_Configurations.SW_configured_channels(BANK1[9]), SW_Configurations(BANK1[9]), g_lm35_config(BANK1[3]), g_HeatingElement_config(BANK1[3]), 
		 -> NULL(NULL[0]), 

    Port_SetDirection@DDR_Ptr	PTR volatile unsigned char  size(2) Largest target is 1
		 -> TRISE(SFR1[1]), TRISD(SFR1[1]), TRISC(SFR1[1]), TRISB(SFR1[1]), 
		 -> TRISA(SFR1[1]), NULL(NULL[0]), 

    Dio_ReadChannel@pin_ptr	PTR volatile unsigned char  size(2) Largest target is 1
		 -> PORTE(SFR0[1]), PORTD(SFR0[1]), PORTC(SFR0[1]), PORTB(SFR0[1]), 
		 -> PORTA(SFR0[1]), NULL(NULL[0]), 

    Dio_WriteChannel@port_ptr	PTR volatile unsigned char  size(2) Largest target is 1
		 -> PORTE(SFR0[1]), PORTD(SFR0[1]), PORTC(SFR0[1]), PORTB(SFR0[1]), 
		 -> PORTA(SFR0[1]), NULL(NULL[0]), 

    Dio_WritePort@port_ptr	PTR volatile unsigned char  size(2) Largest target is 1
		 -> PORTE(SFR0[1]), PORTD(SFR0[1]), PORTC(SFR0[1]), PORTB(SFR0[1]), 
		 -> PORTA(SFR0[1]), NULL(NULL[0]), 

    Dio_configuredPorts	PTR unsigned char  size(1) Largest target is 17
		 -> DIO_configuration.Dio_ports(BANK1[1]), DIO_configuration(BANK1[17]), NULL(NULL[0]), 

    Dio_configuredChannels	PTR struct . size(1) Largest target is 17
		 -> DIO_configuration.Dio_channels(BANK1[16]), DIO_configuration(BANK1[17]), NULL(NULL[0]), 

    Dio_Init@ConfigPtr	PTR const struct . size(1) Largest target is 17
		 -> DIO_configuration(BANK1[17]), 

    Adc_init@Config_Ptr	PTR const struct . size(1) Largest target is 2
		 -> Adc_configuration(CODE[2]), 


Critical Paths under _main in COMMON

    _TempSensing_Task->___lwdiv
    _SW_updateState->_Dio_ReadChannel
    _Heater_On->_Dio_WriteChannel
    _Fan_On->_Dio_WriteChannel
    _Display_Task->_Disp_updateValue
    _Disp_updateValue_blink->_Disp_updateValue
    _Disp_updateValue->___awdiv
    _Disp_updateValue->___awmod
    _Dio_WritePort->___awdiv
    _Dio_WritePort->___awmod
    _Active_Task->_externalEEPROM_writeU8Data
    _externalEEPROM_writeU8Data->_I2C_Write
    _SW_setConfigurations->_Port_SetDirection
    _LM35_ReadTemp->_Adc_readChannel
    ___xxtofl->_Adc_readChannel
    ___flmul->__Umul8_16
    _LM35_Init->_Port_SetDirection
    _LED_init->_Dio_WriteChannel
    _LED_init->_Port_SetDirection
    _Heater_init->_Port_SetDirection
    _Heater_Off->_Dio_WriteChannel
    _Fan_init->_Port_SetDirection
    _Fan_Off->_Dio_WriteChannel
    _Disp_init->_Port_SetDirection
    _Disp_init->_Port_SetPortDirection

Critical Paths under _Main_ISR in COMMON

    None.

Critical Paths under _main in BANK0

    _TempSensing_Task->_LM35_ReadTemp
    _SW_updateSamples->_SW_updateState
    _SW_updateState->_Dio_ReadChannel
    _Heater_On->_Dio_WriteChannel
    _Fan_On->_Dio_WriteChannel
    _Display_Task->_Disp_updateValue_blink
    _Disp_updateValue_blink->_Disp_updateValue
    _Disp_updateValue->_Dio_WritePort
    _Dio_WritePort->___awdiv
    _EWH_initTask->_LM35_ReadTemp
    _SW_init->_SW_setConfigurations
    _LM35_ReadTemp->___fldiv
    ___xxtofl->_Adc_readChannel
    ___fltol->___flmul
    ___flmul->__Umul8_16
    ___fldiv->___flmul
    _LED_init->_Dio_WriteChannel
    _Heater_Off->_Dio_WriteChannel
    _Fan_Off->_Dio_WriteChannel

Critical Paths under _Main_ISR in BANK0

    None.

Critical Paths under _main in BANK1

    None.

Critical Paths under _Main_ISR in BANK1

    None.

Critical Paths under _main in BANK3

    None.

Critical Paths under _Main_ISR in BANK3

    None.

Critical Paths under _main in BANK2

    None.

Critical Paths under _Main_ISR in BANK2

    None.

Call Graph Tables:

 ---------------------------------------------------------------------------------
 (Depth) Function   	        Calls       Base Space   Used Autos Params    Refs
 ---------------------------------------------------------------------------------
 (0) _main                                                 0     0      0   27648
                           _Os_start
 ---------------------------------------------------------------------------------
 (1) _Os_start                                             0     0      0   27648
                       _EWH_initTask
                             _Os_sch
                     _SysTimer_start
                   _Tmr1_setCallback
 ---------------------------------------------------------------------------------
 (2) _Tmr1_setCallback                                     1     1      0      22
                                              3 COMMON     1     1      0
 ---------------------------------------------------------------------------------
 (2) _SysTimer_start                                       0     0      0       0
 ---------------------------------------------------------------------------------
 (2) _Os_sch                                               0     0      0   14385
                        _Active_Task
                       _Display_Task
                    _EWH_updateState
                            _SW_Task
                   _TempSensing_Task
 ---------------------------------------------------------------------------------
 (3) _TempSensing_Task                                     0     0      0    5444
                      _LM35_ReadTemp
                            ___lwdiv
 ---------------------------------------------------------------------------------
 (4) ___lwdiv                                              7     3      4     421
                                              3 COMMON     4     0      4
                                              0 BANK0      3     3      0
 ---------------------------------------------------------------------------------
 (3) _SW_Task                                              0     0      0     513
                    _SW_UpdateStates
                        _SW_getState
                   _SW_updateSamples
 ---------------------------------------------------------------------------------
 (4) _SW_UpdateStates                                      2     2      0      92
                                              3 COMMON     2     2      0
 ---------------------------------------------------------------------------------
 (3) _EWH_updateState                                      2     2      0    4855
                                             11 BANK0      2     2      0
                            _Fan_Off
                         _Heater_Off
                  _TempControl_State
                  _TempSetting_State
 ---------------------------------------------------------------------------------
 (4) _TempSetting_State                                    0     0      0     421
                        _SW_getState
                   _SW_updateSamples
 ---------------------------------------------------------------------------------
 (4) _SW_updateSamples                                     0     0      0     399
                     _SW_updateState
 ---------------------------------------------------------------------------------
 (5) _SW_updateState                                       6     6      0     399
                                              5 BANK0      6     6      0
                    _Dio_ReadChannel
 ---------------------------------------------------------------------------------
 (6) _Dio_ReadChannel                                      9     9      0     142
                                              3 COMMON     4     4      0
                                              0 BANK0      5     5      0
 ---------------------------------------------------------------------------------
 (4) _SW_getState                                          1     1      0      22
                                              3 COMMON     1     1      0
 ---------------------------------------------------------------------------------
 (4) _TempControl_State                                    3     3      0    2956
                                              4 BANK0      3     3      0
                            _Fan_Off
                             _Fan_On
                         _Heater_Off
                          _Heater_On
 ---------------------------------------------------------------------------------
 (5) _Heater_On                                            0     0      0     739
                   _Dio_WriteChannel
 ---------------------------------------------------------------------------------
 (5) _Fan_On                                               0     0      0     739
                   _Dio_WriteChannel
 ---------------------------------------------------------------------------------
 (3) _Display_Task                                         0     0      0    3355
                _Disp_turnDiplaysOff
                   _Disp_updateValue
             _Disp_updateValue_blink
 ---------------------------------------------------------------------------------
 (4) _Disp_updateValue_blink                               1     1      0    1693
                                             14 BANK0      1     1      0
                _Disp_turnDiplaysOff
                   _Disp_updateValue
 ---------------------------------------------------------------------------------
 (5) _Disp_updateValue                                     3     3      0    1662
                                              7 COMMON     1     1      0
                                             12 BANK0      2     2      0
                      _Dio_WritePort
                            ___awdiv
                            ___awmod
 ---------------------------------------------------------------------------------
 (6) ___awmod                                              6     2      4     613
                                              3 COMMON     4     0      4
                                              0 BANK0      2     2      0
 ---------------------------------------------------------------------------------
 (6) ___awdiv                                              8     4      4     625
                                              3 COMMON     4     0      4
                                              0 BANK0      4     4      0
 ---------------------------------------------------------------------------------
 (6) _Dio_WritePort                                        8     7      1     362
                                              4 BANK0      8     7      1
                            ___awdiv (ARG)
                            ___awmod (ARG)
 ---------------------------------------------------------------------------------
 (5) _Disp_turnDiplaysOff                                  0     0      0       0
 ---------------------------------------------------------------------------------
 (3) _Active_Task                                          0     0      0     218
         _externalEEPROM_writeU8Data
 ---------------------------------------------------------------------------------
 (2) _EWH_initTask                                         0     0      0   13241
                           _Adc_init
                           _Dio_Init
                          _Disp_init
                           _Fan_init
                        _Heater_init
                           _LED_init
                          _LM35_Init
                      _LM35_ReadTemp
                            _SW_init
                _externalEEPROM_init
         _externalEEPROM_writeU8Data
 ---------------------------------------------------------------------------------
 (4) _externalEEPROM_writeU8Data                           2     1      1     218
                                              4 COMMON     2     1      1
                          _I2C_Start
                           _I2C_Stop
                          _I2C_Write
 ---------------------------------------------------------------------------------
 (5) _I2C_Write                                            1     1      0      22
                                              3 COMMON     1     1      0
                    _i2c_WaitForIdle
 ---------------------------------------------------------------------------------
 (6) _i2c_WaitForIdle                                      0     0      0       0
 ---------------------------------------------------------------------------------
 (5) _I2C_Stop                                             0     0      0       0
 ---------------------------------------------------------------------------------
 (5) _I2C_Start                                            0     0      0       0
 ---------------------------------------------------------------------------------
 (3) _externalEEPROM_init                                  0     0      0       0
                           _I2C_Init
 ---------------------------------------------------------------------------------
 (4) _I2C_Init                                             0     0      0       0
              _I2c_setConfigurations
 ---------------------------------------------------------------------------------
 (5) _I2c_setConfigurations                                0     0      0       0
 ---------------------------------------------------------------------------------
 (3) _SW_init                                              0     0      0    1205
               _SW_setConfigurations
 ---------------------------------------------------------------------------------
 (4) _SW_setConfigurations                                 2     2      0    1205
                                              0 BANK0      2     2      0
                  _Port_SetDirection
                             ___bmul
 ---------------------------------------------------------------------------------
 (5) ___bmul                                               3     2      1     118
                                              3 COMMON     3     2      1
 ---------------------------------------------------------------------------------
 (4) _LM35_ReadTemp                                       16    14      2    5023
                                             57 BANK0     16    14      2
                    _Adc_readChannel
                            ___fldiv
                            ___flmul
                            ___fltol
                           ___xxtofl
 ---------------------------------------------------------------------------------
 (5) ___xxtofl                                            14    10      4     398
                                              3 BANK0     14    10      4
                    _Adc_readChannel (ARG)
 ---------------------------------------------------------------------------------
 (5) ___fltol                                             10     6      4     427
                                             31 BANK0     10     6      4
                            ___flmul (ARG)
 ---------------------------------------------------------------------------------
 (5) ___flmul                                             26    18      8    2569
                                              5 BANK0     26    18      8
                          __Umul8_16
 ---------------------------------------------------------------------------------
 (6) __Umul8_16                                            9     7      2     799
                                              3 COMMON     4     2      2
                                              0 BANK0      5     5      0
 ---------------------------------------------------------------------------------
 (5) ___fldiv                                             26    18      8    1425
                                             31 BANK0     26    18      8
                            ___flmul (ARG)
 ---------------------------------------------------------------------------------
 (5) _Adc_readChannel                                      7     5      2      68
                                              3 COMMON     4     2      2
                                              0 BANK0      3     3      0
 ---------------------------------------------------------------------------------
 (3) _LM35_Init                                            0     0      0     837
                  _Port_SetDirection
             _lm35_setConfigurations
 ---------------------------------------------------------------------------------
 (4) _lm35_setConfigurations                               0     0      0       0
 ---------------------------------------------------------------------------------
 (3) _LED_init                                             0     0      0    1576
                   _Dio_WriteChannel
              _LED_setConfigurations
                  _Port_SetDirection
 ---------------------------------------------------------------------------------
 (4) _LED_setConfigurations                                0     0      0       0
 ---------------------------------------------------------------------------------
 (3) _Heater_init                                          0     0      0    1576
                         _Heater_Off
           _Heater_setConfigurations
                  _Port_SetDirection
 ---------------------------------------------------------------------------------
 (4) _Heater_setConfigurations                             0     0      0       0
 ---------------------------------------------------------------------------------
 (5) _Heater_Off                                           0     0      0     739
                   _Dio_WriteChannel
 ---------------------------------------------------------------------------------
 (3) _Fan_init                                             0     0      0    1576
                            _Fan_Off
                  _Port_SetDirection
              _fan_setConfigurations
 ---------------------------------------------------------------------------------
 (4) _fan_setConfigurations                                0     0      0       0
 ---------------------------------------------------------------------------------
 (5) _Fan_Off                                              0     0      0     739
                   _Dio_WriteChannel
 ---------------------------------------------------------------------------------
 (6) _Dio_WriteChannel                                     9     8      1     739
                                              3 COMMON     5     4      1
                                              0 BANK0      4     4      0
 ---------------------------------------------------------------------------------
 (3) _Disp_init                                            0     0      0     986
                  _Port_SetDirection
              _Port_SetPortDirection
              _SSD_setConfigurations
 ---------------------------------------------------------------------------------
 (4) _SSD_setConfigurations                                0     0      0       0
 ---------------------------------------------------------------------------------
 (4) _Port_SetPortDirection                                5     5      0     149
                                              3 COMMON     5     5      0
 ---------------------------------------------------------------------------------
 (5) _Port_SetDirection                                    5     5      0     837
                                              3 COMMON     5     5      0
 ---------------------------------------------------------------------------------
 (3) _Dio_Init                                             2     2      0     123
                                              3 COMMON     2     2      0
 ---------------------------------------------------------------------------------
 (3) _Adc_init                                             3     3      0     121
                                              3 COMMON     3     3      0
 ---------------------------------------------------------------------------------
 Estimated maximum stack depth 6
 ---------------------------------------------------------------------------------
 (Depth) Function   	        Calls       Base Space   Used Autos Params    Refs
 ---------------------------------------------------------------------------------
 (8) _Main_ISR                                             3     3      0       0
                                              0 COMMON     3     3      0
                   Absolute function *
                    _Os_newTimerTick *
 ---------------------------------------------------------------------------------
 (9) _Os_newTimerTick                                      0     0      0       0
 ---------------------------------------------------------------------------------
 (9) Absolute function(Fake)                               0     0      0       0
 ---------------------------------------------------------------------------------
 Estimated maximum stack depth 9
 ---------------------------------------------------------------------------------

 Call Graph Graphs:

 _main (ROOT)
   _Os_start
     _EWH_initTask
       _Adc_init
       _Dio_Init
       _Disp_init
         _Port_SetDirection
         _Port_SetPortDirection
         _SSD_setConfigurations
       _Fan_init
         _Fan_Off
           _Dio_WriteChannel
         _Port_SetDirection
         _fan_setConfigurations
       _Heater_init
         _Heater_Off
           _Dio_WriteChannel
         _Heater_setConfigurations
         _Port_SetDirection
       _LED_init
         _Dio_WriteChannel
         _LED_setConfigurations
         _Port_SetDirection
       _LM35_Init
         _Port_SetDirection
         _lm35_setConfigurations
       _LM35_ReadTemp
         _Adc_readChannel
         ___fldiv
           ___flmul (ARG)
             __Umul8_16
         ___flmul
           __Umul8_16
         ___fltol
           ___flmul (ARG)
             __Umul8_16
         ___xxtofl
           _Adc_readChannel (ARG)
       _SW_init
         _SW_setConfigurations
           _Port_SetDirection
           ___bmul
       _externalEEPROM_init
         _I2C_Init
           _I2c_setConfigurations
       _externalEEPROM_writeU8Data
         _I2C_Start
         _I2C_Stop
         _I2C_Write
           _i2c_WaitForIdle
     _Os_sch
       _Active_Task
         _externalEEPROM_writeU8Data
           _I2C_Start
           _I2C_Stop
           _I2C_Write
             _i2c_WaitForIdle
       _Display_Task
         _Disp_turnDiplaysOff
         _Disp_updateValue
           _Dio_WritePort
             ___awdiv (ARG)
             ___awmod (ARG)
           ___awdiv
           ___awmod
         _Disp_updateValue_blink
           _Disp_turnDiplaysOff
           _Disp_updateValue
             _Dio_WritePort
               ___awdiv (ARG)
               ___awmod (ARG)
             ___awdiv
             ___awmod
       _EWH_updateState
         _Fan_Off
           _Dio_WriteChannel
         _Heater_Off
           _Dio_WriteChannel
         _TempControl_State
           _Fan_Off
             _Dio_WriteChannel
           _Fan_On
             _Dio_WriteChannel
           _Heater_Off
             _Dio_WriteChannel
           _Heater_On
             _Dio_WriteChannel
         _TempSetting_State
           _SW_getState
           _SW_updateSamples
             _SW_updateState
               _Dio_ReadChannel
       _SW_Task
         _SW_UpdateStates
         _SW_getState
         _SW_updateSamples
           _SW_updateState
             _Dio_ReadChannel
       _TempSensing_Task
         _LM35_ReadTemp
           _Adc_readChannel
           ___fldiv
             ___flmul (ARG)
               __Umul8_16
           ___flmul
             __Umul8_16
           ___fltol
             ___flmul (ARG)
               __Umul8_16
           ___xxtofl
             _Adc_readChannel (ARG)
         ___lwdiv
     _SysTimer_start
     _Tmr1_setCallback

 _Main_ISR (ROOT)
   Absolute function(Fake) *
   _Os_newTimerTick *

 Address spaces:
Name               Size   Autos  Total    Cost      Usage
BANK3               60      0       0       9        0.0%
BITBANK3            60      0       0       8        0.0%
SFR3                 0      0       0       4        0.0%
BITSFR3              0      0       0       4        0.0%
BANK2               60      0       0      11        0.0%
BITBANK2            60      0       0      10        0.0%
SFR2                 0      0       0       5        0.0%
BITSFR2              0      0       0       5        0.0%
BANK1               50      0      4B       7       93.8%
BITBANK1            50      0       0       6        0.0%
SFR1                 0      0       0       2        0.0%
BITSFR1              0      0       0       2        0.0%
BANK0               50     49      50       5      100.0%
BITBANK0            50      0       0       4        0.0%
SFR0                 0      0       0       1        0.0%
BITSFR0              0      0       0       1        0.0%
COMMON               E      8       B       1       78.6%
BITCOMMON            E      0       0       0        0.0%
CODE                 0      0       0       0        0.0%
DATA                 0      0      A6      12        0.0%
ABS                  0      0      A6       3        0.0%
NULL                 0      0       0       0        0.0%
STACK                0      0       0       2        0.0%
EEDATA             100      0       0       0        0.0%


Microchip Technology PIC Macro Assembler V2.20 build 20200408173844 
Symbol Table                                                                                   Sun Jul 19 09:33:44 2020

                  ?_TempSensing_Task 0070                         ___fldiv@aexp 0058  
                       ___fldiv@bexp 0057                                    pc 0002  
                       ___fldiv@sign 0050                       ___bmul@product 0074  
                 __size_of_I2C_Start 0008        __size_of_SW_setConfigurations 0030  
                   ?_i2c_WaitForIdle 0070                   __size_of_I2C_Write 0011  
                                 l20 0D37                                   _BF 04A0  
                                 l24 0AF4                                   l18 0D35  
                                 l19 0D1C                                   l27 0B08  
                                 l52 0921                                   l61 0E05  
                                 l63 0E0A                                   l64 0E0F  
                                 l65 0E14                                   l66 0E19  
                                 l68 0E46                                   l93 0700  
                                 l95 0705                                   l96 070A  
                                 l97 070F                                   l98 0714  
                       ___awdiv@sign 0021                   ??_TempSensing_Task 0077  
                                 _sw 006B                                   fsr 0004  
             ?_LED_setConfigurations 0070                  __Umul8_16@word_mpld 0022  
                       _g_SW_configs 00D5                                  l100 0779  
                                l200 0FFF                                  l104 0779  
                                l120 0F8B                                  l113 0F35  
                                l115 0F3A                                  l204 0D3C  
                                l116 0F3F                                  l213 0D8F  
                                l117 0F44                                  l206 0D41  
                                l118 0F49                                  l207 0D46  
                                l231 0A5F                                  l208 0D4B  
                                l209 0D50                                  l153 17BB  
                                l401 0985                                  l241 0BC0  
                                l313 1777                                  l162 1757  
                                l234 1739                                  l410 0C4F  
                                l250 1747                                  l171 07FF  
                                l323 177D                                  l156 17DD  
                                l500 0886                                  l405 08CF  
                                l253 0833                                  l174 080D  
                                l430 0CE5                                  l191 0F90  
                                l503 0887                                  l159 1799  
                                l247 08EA                                  l272 1790  
                                l416 0B41                                  l193 0F95  
                                l177 06E4                                  l521 17EE  
                                l194 0F9A                                  l266 17AF  
                                l530 175B                                  l506 089D  
                                l195 0F9F                                  l451 085A  
                                l275 174F                                  l419 0B42  
                                l427 0A97                                  l196 0FA4  
                                l460 1740                                  l269 17CC  
                                l533 175F                                  l293 176F  
                                l454 08B5                                  l542 17F4  
                                l390 0C98                                  l536 1763  
                                l545 17FF                                  l457 0F19  
                                l394 0ACF                                  l634 0905  
                                l539 1767                                  l571 093F  
                                l469 0A00                                  l389 0C94  
                                l646 0A01                                  l568 1732  
                                l585 17A3                                  l905 0DEA  
                                l588 0820                                  l932 07E0  
                                l925 07F5                                  l765 086F  
                                l935 07F5                                  l892 0EAF  
                                _GIE 005F                                  _PEN 048A  
                                _SEN 0488                                  _R_W 04A2  
                                fsr0 0004                                  indf 0000  
                       ___awmod@sign 0021                         ___flmul@aexp 0037  
                       ___flmul@bexp 0038                         ___flmul@sign 0032  
                       ___flmul@temp 003D                         ___flmul@prod 0039  
                 __size_of_LM35_Init 000C                         ___fltol@exp1 0048  
                               l1011 0C06                                 l1112 0572  
                               l1104 04F0                                 l1140 0395  
                               l1134 030D                                 l1128 03A1  
                               l3001 03E0                                 l1090 057E  
                               l3011 03F4                                 l3003 03E1  
                               l1147 09C3                                 l1172 05A3  
                               l3101 0555                                 l3005 03E6  
                               l3013 03F6                                 l1149 09D5  
                               l1174 063A                                 l3111 056C  
                               l3103 0559                                 l3031 043F  
                               l3015 0406                                 l3023 041F  
                               l3007 03EB                                 l2223 1768  
                               l1088 03FE                                 l3113 056E  
                               l3105 0561                                 l3041 045E  
                               l3033 0447                                 l3025 0424  
                               l3017 0412                                 l3009 03F3  
                               l3201 02B9                                 l3121 0048  
                               l1185 0604                                 l2225 176E  
                               l1186 0610                                 l3107 0562  
                               l3051 0490                                 l3043 0470  
                               l3035 044F                                 l3019 0416  
                               l3211 02DE                                 l3203 02C2  
                               l3131 005D                                 l3123 004E  
                               l3109 0568                                 l3061 04B1  
                               l3053 0491                                 l3045 0474  
                               l3037 0457                                 l3029 042D  
                               l3221 02F6                                 l3213 02E7  
                               l3205 02D0                                 l3141 007A  
                               l3133 0065                                 l3125 0052  
                               l3301 062D                                 l4021 0DF6  
                               l4101 0EAB                                 l3311 17BA  
                               l3071 04CA                                 l3063 04B3  
                               l3055 049F                                 l3047 0475  
                               l3039 0459                                 l3231 0325  
                               l3223 030A                                 l3207 02D9  
                               l3215 02ED                                 l3151 0091  
                               l3143 007E                                 l3135 0067  
                               l3127 0053                                 l3119 0041  
                               l3303 0631                                 l4023 0DF8  
                               l4111 0D9C                                 l3313 07F6  
                               l3081 04ED                                 l3065 04BC  
                               l3073 04D0                                 l3049 047E  
                               l3057 04A3                                 l3241 0360  
                               l3233 0329                                 l3217 02F1  
                               l3209 02DD                                 l3153 0093  
                               l3145 007F                                 l3137 006F  
                               l3129 0058                                 l4201 0787  
                               l3305 0632                                 l3401 092E  
                               l4033 0E1E                                 l4025 0DFD  
                               l4017 0DEE                                 l4121 0DB0  
                               l4113 0D9E                                 l4105 0D90  
                               l3331 0D71                                 l3315 07F9  
                               l3091 050C                                 l3075 04D4  
                               l3067 04C0                                 l3059 04A9  
                               l3251 0389                                 l3243 036F  
                               l3235 0342                                 l3227 0312  
                               l3219 02F2                                 l3171 0104  
                               l3163 00AE                                 l3155 009B  
                               l3147 0084                                 l3139 0074  
                               l4211 07AE                                 l3403 0934  
                               l4035 0E3D                                 l4027 0DFF  
                               l4019 0DF1                                 l4131 0DCF  
                               l4123 0DB7                                 l4115 0DA2  
                               l4107 0D93                                 l4051 0BA2  
                               l4043 0B83                                 l3501 0908  
                               l3333 0D78                                 l3325 0D39  
                               l2701 073F                                 l3309 17B0  
                               l3317 07FD                                 l3093 0525  
                               l3085 04F5                                 l3077 04D5  
                               l3069 04C1                                 l3253 038D  
                               l3245 0379                                 l3229 0317  
                               l3237 0348                                 l3181 0181  
                               l3173 0130                                 l3165 00BE  
                               l3157 00A0                                 l3149 0089  
                               l4221 07BC                                 l4213 07B0  
                               l4205 0790                                 l3261 0582  
                               l3405 093A                                 l4061 0E47  
                               l4133 0DD6                                 l4125 0DBB  
                               l4117 0DA7                                 l4109 0D97  
                               l4053 0BAF                                 l4045 0B8E  
                               l4301 0BCB                                 l3511 091F  
                               l3503 090D                                 l3335 0D82  
                               l2703 075A                                 l4151 0AE8  
                               l4143 0AD3                                 l3087 04FA  
                               l3095 052B                                 l3079 04D9  
                               l3255 038E                                 l3247 037B  
                               l3239 0355                                 l3191 0201  
                               l3183 019E                                 l3175 014C  
                               l3167 00CB                                 l3159 00A5  
                               l4231 07D5                                 l4223 07C5  
                               l4215 07B4                                 l4207 07A5  
                               l3263 0587                                 l4071 0E59  
                               l4063 0E4A                                 l4127 0DBF  
                               l4119 0DAD                                 l4135 0DDC  
                               l2631 0F27                                 l4055 0BB4  
                               l4047 0B93                                 l4311 0BEE  
                               l4303 0BCE                                 l3505 090F  
                               l3337 0D89                                 l3329 0D55  
                               l3441 0854                                 l3433 0847  
                               l4401 08AF                                 l2705 075F  
                               l4153 0AF1                                 l4145 0AD5  
                               l3097 0538                                 l3089 0508  
                               l3257 0399                                 l3249 0381  
                               l3193 022E                                 l3185 01AE  
                               l3177 0168                                 l3169 00E8  
                               l4233 07E5                                 l4225 07CE  
                               l4209 07A6                                 l3281 05CD  
                               l3273 05B4                                 l3265 058B  
                               l4081 0E6D                                 l4073 0E5E  
                               l4065 0E4E                                 l4137 0DE1  
                               l4129 0DC9                                 l2641 0F4E  
                               l2633 0F2D                                 l2625 0F1D  
                               l4049 0B93                                 l4057 0BBA  
                               l4313 0BF4                                 l4305 0BD5  
                               l3507 0914                                 l4171 0FCD  
                               l4163 0F8D                                 l3443 0859  
                               l3435 084D                                 l4323 17CD  
                               l4403 080E                                 l4331 0807  
                               l4155 0AF8                                 l4147 0ADA  
                               l3099 0546                                 l3195 023E  
                               l3187 01CB                                 l3179 0171  
                               l4235 07EA                                 l3291 05FA  
                               l3283 05D1                                 l3275 05B9  
                               l3267 059B                                 l4243 0A33  
                               l3451 17EA                                 l2731 0887  
                               l4411 0C9F                                 l4091 0E93  
                               l4083 0E74                                 l4075 0E62  
                               l4067 0E53                                 l4139 0DE6  
                               l2643 0F6F                                 l2635 0F2F  
                               l2627 0F20                                 l3371 08D3  
                               l3363 08D0                                 l4315 0BF5  
                               l4307 0BD9                                 l3509 0918  
                               l4173 0FE2                                 l3437 084E  
                               l4325 17D2                                 l3453 179A  
                               l4405 0813                                 l4157 0AFC  
                               l4149 0ADB                                 l3197 026B  
                               l3189 01E4                                 l3293 05FE  
                               l3285 05DF                                 l3277 05BD  
                               l3269 05AB                                 l4237 063B  
                               l4245 0A33                                 l4333 1733  
                               l3445 17DE                                 l3605 172D  
                               l2733 088D                                 l4421 0CB9  
                               l4413 0CA5                                 l4093 0E94  
                               l4085 0E78                                 l4077 0E64  
                               l4069 0E55                                 l4261 09D9  
                               l2645 0F8A                                 l2629 0F25  
                               l3373 08DC                                 l3365 08D2  
                               l4341 0C50                                 l4317 0BFC  
                               l4309 0BDD                                 l4175 0FEA  
                               l4167 0FA9                                 l3439 0853  
                               l3383 17A4                                 l4335 17BC  
                               l4327 17D8                                 l3455 179E  
                               l4407 0819                                 l4159 0B04  
                               l2831 09CC                                 l2823 09B0  
                               l3199 0291                                 l3295 0608  
                               l3287 05E8                                 l3279 05C6  
                               l4239 06E0                                 l4255 0A41  
                               l4247 0A38                                 l2911 0884  
                               l3447 17E3                                 l2735 0891  
                               l4431 0CD8                                 l4423 0CBE  
                               l4415 0CAA                                 l4095 0E9B  
                               l4087 0E7C                                 l4079 0E6A  
                               l4191 0EE0                                 l4263 09E8  
                               l4271 0C07                                 l4183 0821  
                               l3375 08DF                                 l4351 0C79  
                               l4343 0C5F                                 l4319 0C02  
                               l3607 1771                                 l4169 0FC5  
                               l2681 06E8                                 l3385 17AE  
                               l4337 17C1                                 l3457 17A2  
                               l4329 0802                                 l2833 09D1  
                               l2825 09B2                                 l3297 0612  
                               l3289 05EF                                 l2921 085C  
                               l4257 0A53                                 l4249 0A3E  
                               l3449 17E6                                 l2913 1758  
                               l2737 0895                                 l4425 0CC3  
                               l4417 0CAF                                 l4409 0C99  
                               l4089 0E8D                                 l4097 0EA1  
                               l4193 0EE6                                 l4185 0EB1  
                               l4265 09EF                                 l4273 0C1F  
                               l4281 0B0E                                 l3377 08E3  
                               l4345 0C6A                                 l4353 0C7E  
                               l4361 0AB3                                 l4441 0A10  
                               l4433 0A01                                 l2691 06FA  
                               l2683 06EB                                 l4339 17C7  
                               l2827 09B9                                 l3299 0628  
                               l2931 0869                                 l2923 085D  
                               l4259 0A59                                 l2907 0870  
                               l2915 1760                                 l2739 0899  
                               l4427 0CC8                                 l4419 0CB4  
                               l3571 08BD                                 l4099 0EA6  
                               l4195 0F06                                 l4187 0ED3  
                               l4267 09F8                                 l4371 0969  
                               l4275 0C29                                 l4291 0B33  
                               l4283 0B19                                 l3379 08E9  
                               l4355 0C89                                 l4347 0C71  
                               l4363 0AB9                                 l4451 0A23  
                               l4443 0A14                                 l4435 0A06  
                               l3493 0D1E                                 l3485 0CE7  
                               l2685 06F0                                 l2829 09BD  
                               l2933 086E                                 l2925 0861  
                               l2909 087A                                 l2917 17F0  
                               l3397 0923                                 l4429 0CD2  
                               l3573 08C9                                 l4197 0F09  
                               l4189 0ED6                                 l4269 09FE  
                               l4373 096F                                 l4277 0C45  
                               l4293 0B3B                                 l4285 0B21  
                               l4381 0A61                                 l4349 0C77  
                               l4365 0ACC                                 l4357 0A98  
                               l4453 0A24                                 l4445 0A19  
                               l4437 0A0A                                 l4461 08F1  
                               l3487 0CEC                                 l2687 06F2  
                               l4199 077A                                 l2927 0865  
                               l2919 17FA                                 l3399 0928  
                               l4375 0974                                 l4287 0B26  
                               l4279 0B09                                 l4383 0A6C  
                               l4367 0ACE                                 l4359 0AAF  
                               l4455 0A28                                 l4447 0A1A  
                               l4439 0A0F                                 l4471 0900  
                               l4463 08F4                                 l3489 0D17  
                               l2697 0719                                 l2689 06F8  
                               l2929 0867                                 l3569 08B6  
                               l4377 097D                                 l4369 0962  
                               l2881 1742                                 l4289 0B28  
                               l4385 0A7C                                 l4297 0BC1  
                               l4457 0A2D                                 l4449 0A1E  
                               l4465 08F9                                 l4473 1778  
                               l3499 0907                                 l4395 089E  
                               l2699 073A                                 l2891 173A  
                               l4379 0A60                                 l4299 0BC5  
                               l4467 08FA                                 l4459 08EB  
                               l4397 08A3                                 l2877 1750  
                               l2981 03B3                                 l4389 0A82  
                               l4469 08FB                                 l4399 08A9  
                               l2887 1748                                 l2991 03C7  
                               l2983 03B4                                 l2975 03A2  
                               l4671 0E2C                                 l2879 1791  
                               l4673 0729                                 l2985 03B9  
                               l2993 03C9                                 l2977 03A9  
                               l2889 1788                                 l4675 0D60  
                               l2995 03D1                                 l2987 03BE  
                               l2979 03AF                                 l4667 0A8C  
                               l4677 0FB4                                 l2997 03D6  
                               l2989 03C6                                 l4669 0F5E  
                               l4679 0D2D                                 l2999 03DC  
                               u2100 0F25                                 u2101 0F24  
                               u2110 0F2D                                 u2111 0F2C  
                               u2200 073F                                 u3000 051B  
                               u2120 0F34                                 u2201 073E  
                               u2121 0F33                                 u3010 0538  
                               u3011 0537                                 u2220 075F  
                               u3020 0555                                 u3100 00A0  
                               u2300 089D                                 u2221 075E  
                               u3021 0554                                 u3005 0516  
                               u3101 009F                                 u2301 089C  
                               u2214 074C                                 u3030 056C  
                               u3110 00A5                                 u2134 0F82  
                               u2215 074A                                 u3031 056B  
                               u3015 0534                                 u3111 00A4  
                               u2135 0F80                                 u3040 0052  
                               u3025 0551                                 u3201 01F3  
                               u3121 00F6                                 u3041 0051  
                               u2234 076C                                 u2170 06F0  
                               u3202 01FA                                 u3122 00FD  
                               u3050 0058                                 u2235 076A  
                               u2171 06EF                                 u3211 0220  
                               u3203 0201                                 u3131 0112  
                               u3123 0104                                 u3051 0057  
                               u2180 06F8                                 u2500 09BD  
                               u3212 0227                                 u3132 0119  
                               u3060 005D                                 u2260 088D  
                               u2181 06F7                                 u2501 09BC  
                               u3221 024D                                 u3213 022E  
                               u3141 013E                                 u3133 0120  
                               u3061 005C                                 u2261 088C  
                               u2190 06FF                                 u3310 02F1  
                               u3230 0277                                 u3222 0254  
                               u3142 0145                                 u3070 007E  
                               u2270 0891                                 u2191 06FE  
                               u3311 02F0                                 u3223 025B  
                               u3151 015A                                 u3143 014C  
                               u3071 007D                                 u2271 0890  
                               u2520 09D1                                 u3400 038D  
                               u3320 02F6                                 u3152 0161  
                               u3080 0084                                 u2600 175F  
                               u2280 0895                                 u4200 0BB4  
                               u2521 09D0                                 u3401 038C  
                               u3321 02F5                                 u3305 02E0  
                               u3241 0283                                 u3153 0168  
                               u3081 0083                                 u2601 175E  
                               u2281 0894                                 u4201 0BB3  
                               u3330 030A                                 u3250 029F  
                               u3242 028A                                 u3090 0089  
                               u3410 0587                                 u2610 1767  
                               u2290 0899                                 u4210 0E4E  
                               u2515 09C4                                 u3331 0309  
                               u3243 0291                                 u3235 0272  
                               u3171 0190                                 u3091 0088  
                               u3411 0586                                 u2611 1766  
                               u2291 0898                                 u4211 0E4D  
                               u3340 0311                                 u3172 0197  
                               u3500 0604                                 u3420 058B  
                               u2620 17FA                                 u4300 0EA6  
                               u4220 0E59                                 u3341 0310  
                               u3261 02AB                                 u3181 01BD  
                               u3173 019E                                 u3165 016A  
                               u3501 0603                                 u3421 058A  
                               u2621 17F9                                 u4301 0EA5  
                               u4221 0E58                                 u3350 0317  
                               u3262 02B2                                 u3182 01C4  
                               u3510 0608                                 u3430 05AB  
                               u2630 0861                                 u4230 0E6A  
                               u4310 0D97                                 u3351 0316  
                               u3263 02B9                                 u3255 029A  
                               u3183 01CB                                 u3511 0607  
                               u3431 05AA                                 u2631 0860  
                               u4231 0E69                                 u4311 0D96  
                               u4400 0ADA                                 u2800 03EB  
                               u3360 0329                                 u3520 061D  
                               u2640 086E                                 u4160 0DF6  
                               u4320 0DA2                                 u3600 08E9  
                               u4401 0AD9                                 u2801 03EA  
                               u3361 0328                                 u2641 086D  
                               u4161 0DF5                                 u4321 0DA1  
                               u3601 08E8                                 u2810 0406  
                               u3370 0338                                 u3290 02DD  
                               u3530 062D                                 u3450 05CC  
                               u4170 0DFD                                 u4250 0E7C  
                               u4330 0DAD                                 u2811 0405  
                               u3291 02DC                                 u3275 02BB  
                               u3195 01CD                                 u3531 062C  
                               u3451 05CB                                 u4171 0DFC  
                               u4251 0E7B                                 u4331 0DAC  
                               u4420 0AF8                                 u2900 04B1  
                               u2820 0424                                 u3380 0355  
                               u4500 07BB                                 u3540 0631  
                               u4180 0E04                                 u4421 0AF7  
                               u2901 04B0                                 u2821 0423  
                               u3381 0354                                 u3285 02D2  
                               u4501 07BA                                 u3541 0630  
                               u3525 0618                                 u3445 05BE  
                               u4181 0E03                                 u4245 0E6E  
                               u4430 0FCD                                 u3550 0D78  
                               u2830 045E                                 u2750 03B3  
                               u3390 036F                                 u3470 05EE  
                               u4270 0E8D                                 u4350 0DBF  
                               u4190 0B93                                 u4431 0FCC  
                               u3551 0D77                                 u4415 0ADF  
                               u2831 045D                                 u2751 03B2  
                               u3391 036E                                 u3375 0333  
                               u3471 05ED                                 u4271 0E8C  
                               u4351 0DBE                                 u4191 0B92  
                               u3800 0914                                 u3560 0D89  
                               u2920 04C0                                 u2760 03B9  
                               u4520 07CD                                 u4360 0DC9  
                               u4600 09F8                                 u3801 0913  
                               u3561 0D88                                 u2921 04BF  
                               u2761 03B8                                 u3385 0351  
                               u4521 07CC                                 u3465 05E0  
                               u4265 0E7D                                 u4361 0DC8  
                               u4345 0DB1                                 u4601 09F7  
                               u4450 0FEA                                 u2770 03BE  
                               u4530 07D4                                 u3490 05FE  
                               u4290 0EA1                                 u4610 0C1F  
                               u4451 0FE9                                 u2915 04B5  
                               u2771 03BD                                 u3395 036B  
                               u4531 07D3                                 u4515 07BD  
                               u3491 05FD                                 u4291 0EA0  
                               u4275 0E89                                 u4611 0C1E  
                               _PEIE 005E                                 u4444 0FD5  
                               u2940 04D4                                 u2860 0474  
                               u2780 03E0                                 u3900 08BD  
                               u4380 0DDC                                 u4620 0C45  
                               u4445 0FD3                                 u2941 04D3  
                               u2861 0473                                 u2845 0460  
                               u2781 03DF                                 u3485 05F3  
                               u3901 08BC                                 u4285 0E95  
                               u4381 0DDB                                 u4365 0DC5  
                               u4621 0C44                                 u2950 04D9  
                               u2790 03E6                                 u4550 07E5  
                               u4470 0787                                 u4390 0DE1  
                               u4630 0B19                                 u3590 08DC  
                               u4710 0BEE                                 _INTF 0059  
                               u2951 04D8                                 u2935 04C3  
                               u2855 0469                                 u2791 03E5  
                               u4551 07E4                                 u4471 0786  
                               u4391 0DE0                                 u4375 0DD0  
                               u4615 0C1B                                 u4631 0B18  
                               u3591 08DB                                 u4711 0BED  
                               u3760 0CEC                                 u4464 0FF2  
                               u2960 04ED                                 u2880 0490  
                               u4560 07EA                                 u4480 079E  
                               u4640 0B21                                 u4800 0AB9  
                               u3761 0CEB                                 u4465 0FF0  
                               u2961 04EC                                 u2881 048F  
                               u4561 07E9                                 u4545 07D7  
                               u4625 0C41                                 u4641 0B20  
                               u4705 0BDE                                 u4801 0AB8  
                               u2970 04F4                                 u2890 04A9  
                               u4490 07B4                                 u4570 0A38  
                               u4810 0969                                 u4650 0B33  
                               u4730 0C02                                 u2971 04F3  
                               u2891 04A8                                 u2875 0477  
                               u4491 07B3                                 u4571 0A37  
                               u4811 0968                                 u4651 0B32  
                               u4731 0C01                                 u4715 0BEA  
                               u2980 04FA                                 u4580 0A5F  
                               u4820 0974                                 u4660 0B3B  
                               u4740 0C5F                                 _RCEN 048B  
                               u2981 04F9                                 u2885 048C  
                               u4485 0799                                 u4581 0A5E  
                               u4821 0973                                 u4661 0B3A  
                               u4741 0C5E                                 u4725 0BF6  
                               u3790 090D                                 u2990 050C  
                               u4590 09E8                                 u4750 0C6A  
                               u4670 0BCB                                 u4830 0A0A  
                               u3775 0CF6                                 u3791 090C  
                               u2991 050B                                 u4591 09E7  
                               u4751 0C69                                 u4671 0BCA  
                               u4831 0A09                                 u4760 0C71  
                               u4840 0A14                                 u3785 0D0B  
                               u4761 0C70                                 u4841 0A13  
                               u4770 0C77                                 u4690 0BDD  
                               u4850 0A1E                                 u4907 0AEC  
                               u4771 0C76                                 u4691 0BDC  
                               u4851 0A1D                                 u4780 0C89  
                               u4860 0A28                                 u4781 0C88  
                               u4685 0BCF                                 u4861 0A27  
                               u4790 0C94                                 u4791 0C93  
                               u4877 0B9B                                 u4887 0EDC  
                               u4897 0F0F                                 _RSEN 0489  
                __end_of_Heater_init 17DE                                 _main 1778  
                   __end_of_I2C_Init 17EF                                 btemp 007E  
                   __end_of_I2C_Stop 1768                     ?_EWH_updateState 0070  
                               start 0010                      __end_of_Fan_Off 1750  
                    ___fldiv@new_exp 0051                      __end_of_SW_Task 0C99  
                  ___bmul@multiplier 0075                    ?_Tmr1_setCallback 0070  
                    __end_of_SW_init 173A                __end_of_Dio_WritePort 0E47  
           ??_Disp_updateValue_blink 0078              __size_of_SysTimer_start 0008  
                 ??_Tmr1_setCallback 0073                  __end_of_SW_getState 1748  
                         _Heater_Off 1750                           _Dio_status 006F  
                  Dio_Init@ConfigPtr 0074           __size_of_Port_SetDirection 0074  
                   __end_of_LED_init 0821                        ___fltol@sign1 0047  
                              ?_main 0070                                _ACKEN 048C  
                              _ACKDT 048D                      __end_of___fldiv 057F  
                    __end_of___awdiv 0EB0                      __end_of___awmod 0DEB  
                    __end_of___flmul 03A2                      __end_of___fltol 07F6  
                    ___awdiv@divisor 0073                      __end_of___lwdiv 0C07  
                              i1l310 0959                                i1l309 0958  
                              i1l643 0B7F                      ___awdiv@counter 0020  
                              _TMR1H 000F                                _TMR1L 000E  
                              _PORTA 0005                                _PORTB 0006  
                              _PORTC 0007                                _PORTD 0008  
                              _PORTE 0009                                _TRISA 0085  
                              _TRISB 0086                                _TRISC 0087  
                              _TRISD 0088                                _TRISE 0089  
                        _Active_Task 08B6             Dio_ReadChannel@ChannelId 0024  
                    _Os_newTimerTick 0B43            __size_of_Dio_WriteChannel 0095  
         ??_Heater_setConfigurations 0073                                fpbase 0000  
                   __end_of_Adc_init 0D38                    __end_of_I2C_Start 1760  
                  _TempSetting_State 0B09                    __end_of_I2C_Write 1800  
                    _Adc_readChannel 0AD0                                pclath 000A  
              _g_ExtINT_callback_ptr 006D                                status 0003  
                              wtemp0 007E                   ?_TempSetting_State 0070  
                   __end_of_Fan_init 17CD                     __end_of_Dio_Init 0922  
       __size_of_Disp_turnDiplaysOff 0007                     ?_Dio_ReadChannel 0070  
             Adc_readChannel@channel 0020                      __initialization 0013  
                   __end_of_Main_ISR 0962                  ??_TempSetting_State 0077  
                       __end_of_main 1780                    __end_of_LM35_Init 080E  
          __size_of_Disp_updateValue 006A                               ??_main 0078  
                 __size_of_Heater_On 0009                     __end_of_Os_start 0906  
                        _Heater_init 17CD                   __size_of_Disp_init 0018  
               __end_of_Display_Task 0986                Tmr1_setCallback@a_ptr 0073  
          __end_of_TempSetting_State 0B43                               _ADCON0 001F  
                             _ADCON1 009F                               _ADRESH 001E  
                             _ADRESL 009E                     ___awdiv@dividend 0075  
                          ??_Fan_Off 0078                               i1l3731 0B43  
                             i1l3741 0B5E                               i1l3733 0B49  
                             i1l3751 0B6F                               i1l3743 0B5F  
                             i1l3735 0B4F                               i1l3761 0B7B  
                             i1l3753 0B71                               i1l3745 0B63  
                             i1l3737 0B55                               i1l3763 0B7D  
                             i1l3755 0B72                               i1l3747 0B65  
                             i1l3739 0B5D                               i1l3757 0B79  
                             i1l3749 0B6E                               i1l3759 0B7A  
                             i1l3791 0940                               i1l3793 0944  
                             i1l3795 094B                               i1l3797 0951  
                             i1l3799 0954                               u413_20 0944  
                             u413_21 0943                               u406_20 0B5D  
                             u414_20 094B                               u406_21 0B5C  
                             u414_21 094A                               u407_20 0B63  
                             u415_20 0958                               u407_21 0B62  
                             u415_21 0957                               u408_20 0B6E  
                             u408_21 0B6D                               u409_20 0B79  
                             u409_21 0B78                           __i1fptable 0038  
                          ??_SW_Task 0077                               _TMR1IE 0460  
                             _TMR1IF 0060                               _TMR1CS 0081  
                             _TMR1ON 0080                    LM35_ReadTemp@temp 0063  
                             _SSPADD 0093                    LM35_ReadTemp@volt 0065  
                             _SSPCON 0014                               _SSPBUF 0013  
                          ??_SW_init 0078                     __end_of___xxtofl 063B  
                             _Fan_On 1788              SW_setConfigurations@itr 0021  
                  _Adc_configuration 1006                          _SW_getState 1741  
                             _Os_sch 0A01                I2C_Write@v_i2cData_u8 0073  
                      Dio_Init@error 0073                               ___bmul 085B  
                          ??___fldiv 0047                            ??___awdiv 0077  
           ??_lm35_setConfigurations 0073                            ??___awmod 0077  
                          ??___flmul 002D                            ??___fltol 0043  
    __size_of_Disp_updateValue_blink 002B                            ??___lwdiv 0077  
     __size_of_I2c_setConfigurations 0017        __end_of_I2c_setConfigurations 0887  
                        ?_Heater_Off 0070                     ___awdiv@quotient 0022  
                    ___awmod@divisor 0073                      ___awmod@counter 0020  
     __size_of_SSD_setConfigurations 0014              __end_of_Os_newTimerTick 0B80  
      __end_of_SSD_setConfigurations 085B                               fptable 0037  
                             fptotal 0000                            ?_I2C_Init 0070  
                 __size_of__Umul8_16 0029                            ?_I2C_Stop 0070  
            __end_of_Adc_readChannel 0B09                               saved_w 007E  
                      ?_EWH_initTask 0070                   Dio_WritePort@Level 0024  
          __size_of_SW_updateSamples 0013                     ??_SW_updateState 0025  
           __size_of_SW_UpdateStates 001B                __end_of_LM35_ReadTemp 06E5  
                 Dio_WritePort@error 0028       SW_setConfigurations@config_PTR 0020  
                       ___xxtofl@arg 002D                         ___xxtofl@exp 002C  
                       ___xxtofl@val 0023                _fan_setConfigurations 17A4  
            __end_of__initialization 0033            __end_of_Adc_configuration 1008  
     externalEEPROM_writeU8Data@Addr 0074       externalEEPROM_writeU8Data@Data 0075  
                          ?_LED_init 0070                           ___fltol@f1 003F  
         Port_SetDirection@ConfigPtr 0077                    __end_of_Heater_On 179A  
                ___bmul@multiplicand 0073                    __end_of_Disp_init 08B6  
                     __pcstackCOMMON 0070                         __pidataBANK1 0986  
                     _SysTimer_start 1768              ??_LED_setConfigurations 0073  
       ??_externalEEPROM_writeU8Data 0075          __end_of_externalEEPROM_init 1733  
           Dio_WriteChannel@port_ptr 0021                            ?_Adc_init 0070  
              _Port_SetPortDirection 0D38                           ??_I2C_Init 0073  
                         ??_I2C_Stop 0073                       ??_EWH_initTask 0078  
                          ?_Fan_init 0070                            ?_Dio_Init 0070  
          __size_of_TempSensing_Task 0038           __size_of_TempSetting_State 003A  
                   _Dio_WriteChannel 06E5            Adc_readChannel@Adc_result 0021  
       __end_of_SW_setConfigurations 0A60               _Disp_updateValue_blink 09D6  
                          ?_Main_ISR 0070                    _TempControl_State 0C07  
                         __pbssBANK0 0069                           __pbssBANK1 00C7  
                _g_TMR1_callback_ptr 00EA                  __size_of_Heater_Off 0008  
                 ?_TempControl_State 0070  __size_of_externalEEPROM_writeU8Data 001E  
                            ?_Fan_On 0070                           ??_LED_init 0078  
                  __end_of__Umul8_16 09D6               __end_of_SysTimer_start 1770  
                            ?_Os_sch 0070                           __pmaintext 1778  
                          ?_Os_start 0070                  ??_TempControl_State 0024  
                            ?___bmul 0073                           __pintentry 0004  
    __size_of_lm35_setConfigurations 000A                        _g_lm35_config 00E2  
                   _Disp_updateValue 0EB0                           ??_Adc_init 0073  
                            _T1CKPS0 0084                              _T1CKPS1 0085  
              __size_of_Display_Task 0024                     ?_Os_newTimerTick 0070  
               _g_SSD_DataPortConfig 00E8                  _Disp_turnDiplaysOff 173A  
                       ?_Active_Task 0070                            ?___xxtofl 0023  
           __size_of_i2c_WaitForIdle 0017                           ??_Fan_init 0078  
          __size_of_Tmr1_setCallback 0008                           ??_Dio_Init 0073  
                   ?_Adc_readChannel 0073            __end_of_TempControl_State 0C50  
                         ??_Main_ISR 0070                              _SSPSTAT 0094  
                         __stringtab 1000               ?_fan_setConfigurations 0070  
       Port_SetPortDirection@DDR_Ptr 0075                              _Fan_Off 1748  
                            i1fpbase 003D                              _SW_Task 0C50  
                            _SW_init 1733                 ?_Disp_turnDiplaysOff 0070  
                          _I2C_Start 1758                            _I2C_Write 17EF  
                    __size_of_Fan_On 0009                     _EWH_TempSettings 00C7  
                  ??_SW_UpdateStates 0073                      ?_SysTimer_start 0070  
                         ??_Os_start 0078                    _DIO_configuration 00AD  
                    __size_of_Os_sch 002F                         _Display_Task 0962  
                    __size_of___bmul 0015                              ___fldiv 03A2  
                            ___awdiv 0E47                              ___awmod 0D90  
                            ___flmul 0041                              ___fltol 077A  
                            ___lwdiv 0BC1             __size_of_EWH_updateState 0038  
     Port_SetPortDirection@ConfigPtr 0077               ?_Port_SetPortDirection 0070  
                            __ptext1 08EB                              __ptext2 1770  
                            __ptext3 1768                              __ptext4 0A01  
                            __ptext5 0A98                              __ptext6 0BC1  
                            __ptext7 0C50                              __ptext8 08D0  
                            __ptext9 0A60                            _LM35_Init 0802  
                __size_of__i1fptable 0009                           ??___xxtofl 0027  
                   ___awmod@dividend 0075                         ?_Heater_init 0070  
              Disp_updateValue@value 0077                     _SW_updateSamples 0821  
             _lm35_setConfigurations 07F6                              clrloop0 1781  
             __size_of_Dio_WritePort 005C                 end_of_initialization 0033  
              ??_Disp_turnDiplaysOff 0073                 Dio_ReadChannel@error 0021  
                         ?_I2C_Start 0070                    _SW_Configurations 00BE  
                         ?_I2C_Write 0070                         ?_SW_getState 0070  
               __end_of_EWH_initTask 0CE6   __end_of_externalEEPROM_writeU8Data 0940  
         _externalEEPROM_writeU8Data 0922    __size_of_Heater_setConfigurations 000C  
          ?_Heater_setConfigurations 0070                  Dio_WritePort@PortId 0029  
               _SW_setConfigurations 0A30             __size_of_Dio_ReadChannel 0072  
                       ??_Heater_Off 0078                           ?_LM35_Init 0070  
                      ___xxtofl@sign 002B                     _TempSensing_Task 0A98  
                  __size_of_I2C_Init 0011           __size_of_TempControl_State 0049  
                        ___fldiv@grs 0053                          ___fldiv@rem 004C  
                  __size_of_I2C_Stop 0008                    ??_i2c_WaitForIdle 0073  
                        ___flmul@grs 0033                   __end_of_Heater_Off 1758  
        Disp_updateValue_blink@blink 0069          Disp_updateValue_blink@value 002E  
                     __end_of_Fan_On 1791                    __size_of_LED_init 0013  
           __end_of_Dio_WriteChannel 077A                       __end_of_Os_sch 0A30  
                          _Heater_On 1791                ?_SW_setConfigurations 0022  
                      _Dio_WritePort 0DEB                       __end_of___bmul 0870  
     __size_of_LED_setConfigurations 000A                            _Disp_init 089E  
      __end_of_LED_setConfigurations 17A4                _I2c_setConfigurations 0870  
                  __size_of_Adc_init 0052                    ??_EWH_updateState 002B  
            ?_Disp_updateValue_blink 0070                  start_initialization 0013  
                   _Tmr1_setCallback 1770                _SSD_setConfigurations 0847  
               __size_of_Active_Task 001A                    __size_of_Fan_init 0011  
                  __size_of_Dio_Init 001C             __end_of_Disp_updateValue 0F1A  
                  __size_of_Main_ISR 0022                             ??_Fan_On 0078  
                        ??_I2C_Start 0073                          ??_I2C_Write 0073  
                   LM35_ReadTemp@dig 005F                  _Dio_configuredPorts 006E  
                           ??_Os_sch 0078   SW_UpdateStates@new_pressed_Sw_flag 0073  
                           ??___bmul 0074                       ?_Dio_WritePort 0024  
                         ?_Heater_On 0070                           init_fetch0 0834  
                          __Umul8_16 09AD                    __size_of_Os_start 001B  
                        __pdataBANK1 00A0                           ?_Disp_init 0070  
             __size_of_LM35_ReadTemp 00AA                          ??_LM35_Init 0078  
     __end_of_Disp_updateValue_blink 0A01                   __end_of__i1fptable 0041  
                          ___fldiv@a 003F                            ___fldiv@b 0043  
                          ___flmul@a 0029                            ___flmul@b 0025  
                        __pbssCOMMON 0078         __size_of_externalEEPROM_init 0006  
                  ??_Dio_ReadChannel 0073                            ___latbits 0002  
                      __pcstackBANK0 0020              ??_fan_setConfigurations 0073  
                  __size_of___xxtofl 00BC                      _SW_UpdateStates 08D0  
               __size_of_Heater_init 0011                             ?_Fan_Off 0070  
          _g_SSD_DISP1_Enable_config 00DC                Dio_WriteChannel@Level 0073  
                   ??_SysTimer_start 0073                             ?_SW_Task 0070  
              __size_of_EWH_initTask 004D                             ?_SW_init 0070  
              Dio_WriteChannel@error 0020                            __pnvBANK1 00EA  
                       _EWH_SysFlags 0078              __size_of_SW_updateState 0041  
                   ___lwdiv@dividend 0075                         _EWH_SysTimes 00D2  
             ??_SW_setConfigurations 0078                            __pfunctab 0037  
           __end_of_SW_updateSamples 0834                 __size_of_SW_getState 0007  
            ??_Port_SetPortDirection 0073                             ?___fldiv 003F  
                           ?___awdiv 0073                             ?___awmod 0073  
                           ?___flmul 0025                             ?___fltol 003F  
                         ?__Umul8_16 0073                             ?___lwdiv 0073  
             ?_I2c_setConfigurations 0070                            __pstrings 1000  
             ?_SSD_setConfigurations 0070                             _I2C_Init 17DE  
                           _I2C_Stop 1760              ?_lm35_setConfigurations 0070  
                       _EWH_initTask 0C99              _g_HeatingElement_config 00E5  
                   ___lwdiv@quotient 0021             __size_of_Os_newTimerTick 003D  
                 fp__Os_newTimerTick 003E     __end_of_Heater_setConfigurations 17BC  
                      _LM35_ReadTemp 063B               _Dio_configuredChannels 0079  
                  interrupt_function 0004             __size_of_Adc_readChannel 0039  
                        _g_sw_states 00AA              _g_coolingElement_config 00DF  
                          clear_ram0 1780                             _LED_init 080E  
        Dio_ReadChannel@ChannelLevel 0020                      ??_Dio_WritePort 0025  
           __end_of_TempSensing_Task 0AD0          ?_externalEEPROM_writeU8Data 0074  
           Port_SetDirection@DDR_Ptr 0075                          ??_Heater_On 0078  
                        ??_Disp_init 0078                             _Adc_init 0CE6  
                        __stringbase 1005              __end_of_SW_UpdateStates 08EB  
     __end_of_lm35_setConfigurations 0800                      _i2c_WaitForIdle 0887  
                           _Fan_init 17BC                             _Dio_Init 0906  
                           i1fptable 0038          __end_of_Disp_turnDiplaysOff 1741  
                           i1fptotal 0002                             _Main_ISR 0940  
                     ?_LM35_ReadTemp 0059                     __size_of_Fan_Off 0008  
                   __size_of_SW_Task 0049                     __size_of_SW_init 0007  
           __end_of_Tmr1_setCallback 1778                         _g_LED_Config 00D6  
                           _Os_start 08EB                      _EWH_updateState 0A60  
                        ??__Umul8_16 0075                    ?_Dio_WriteChannel 0073  
                   __size_of___fldiv 01DD                     __size_of___awdiv 0069  
                   __size_of___awmod 005B                     __size_of___flmul 0361  
                   __size_of___fltol 007C                     __size_of___lwdiv 0046  
                 ??_Dio_WriteChannel 0074                   __end_of__stringtab 1006  
             Dio_ReadChannel@pin_ptr 0022                             ___xxtofl 057F  
                      _g_SSD_DataArr 00A0                      ___lwdiv@divisor 0073  
                    ___lwdiv@counter 0020                             __ptext10 0B09  
                           __ptext11 0821                             __ptext20 0EB0  
                           __ptext12 0B80                             __ptext21 0D90  
                           __ptext13 0F1A                             __ptext30 1760  
                           __ptext22 0E47                             __ptext14 1741  
                           __ptext31 1758                             __ptext23 0DEB  
                           __ptext15 0C07                             __ptext40 077A  
                           __ptext32 172D                             __ptext24 173A  
                           __ptext16 1791                             __ptext41 0041  
                           __ptext33 17DE                             __ptext25 08B6  
                           __ptext17 1788                             __ptext50 17B0  
                           __ptext42 09AD                             __ptext34 0870  
                           __ptext26 0C99                             __ptext18 0962  
                           __ptext51 1750                             __ptext43 03A2  
                           __ptext35 1733                             __ptext27 0922  
                           __ptext19 09D6                             __ptext60 0906  
                           __ptext52 17BC                             __ptext44 0AD0  
                           __ptext36 0A30                             __ptext28 17EF  
                           __ptext61 0CE6                             __ptext53 17A4  
                           __ptext45 0802                             __ptext37 085B  
                           __ptext29 0887                             __ptext62 0940  
                           __ptext54 1748                             __ptext46 07F6  
                           __ptext38 063B                             __ptext63 0B43  
                           __ptext55 06E5                             __ptext47 080E  
                           __ptext39 057F                             __ptext56 089E  
                           __ptext48 179A                             __ptext57 0847  
                           __ptext49 17CD                             __ptext58 0D38  
                           __ptext59 0F8C                    ?_Disp_updateValue 0070  
                      __size_of_main 0008                   SW_UpdateStates@itr 0074  
                  ??_Os_newTimerTick 0070                   ??_Disp_updateValue 002C  
                     _SW_updateState 0B80             _Heater_setConfigurations 17B0  
                SW_getState@sw_index 0073                  _externalEEPROM_init 172D  
                       _g_SDA_config 00CC                    ??_Adc_readChannel 0075  
                    _Dio_ReadChannel 0F1A              __end_of_i2c_WaitForIdle 089E  
                       _g_SCL_config 00CF                     ?_SW_UpdateStates 0070  
              _LED_setConfigurations 179A                        ??_Active_Task 0076  
                  _Port_SetDirection 0F8C                 ?_externalEEPROM_init 0070  
                 ?_Port_SetDirection 0076                             init_ram0 0838  
                    ??_LM35_ReadTemp 005B                  _g_curr_heater_state 006C  
     __size_of_fan_setConfigurations 000C               SW_updateState@sw_index 002A  
      __end_of_fan_setConfigurations 17B0               SW_updateState@sw_state 0029  
                           intlevel1 0037                  ??_Port_SetDirection 0073  
          _g_SSD_DISP2_Enable_config 00D9               __end_of_SW_updateState 0BC1  
            __end_of_EWH_updateState 0A98            Dio_WriteChannel@ChannelId 0023  
                          stringcode 1000                        ?_Display_Task 0070  
            ??_I2c_setConfigurations 0073                    ?_SW_updateSamples 0070  
     __size_of_Port_SetPortDirection 0058        __end_of_Port_SetPortDirection 0D90  
            ??_SSD_setConfigurations 0073                   ??_SW_updateSamples 0077  
          __end_of_Port_SetDirection 1000               __Umul8_16@multiplicand 0073  
              ??_externalEEPROM_init 0073                        ??_Heater_init 0078  
                           stringdir 1000                             stringtab 1000  
              Dio_WritePort@port_ptr 002A                  __end_of_Active_Task 08D0  
                    ?_SW_updateState 0070                 __Umul8_16@multiplier 0024  
            __end_of_Dio_ReadChannel 0F8C                        ??_SW_getState 0073  
                         _Adc_Status 007A                       ??_Display_Task 0078  
                  __Umul8_16@product 0020                   Adc_init@Config_Ptr 0075  
